TN:gcov_report
SF:/usr/local/include/c++/10.3.0/bits/cpp_type_traits.h
FN:544,_ZSt12__miter_baseIN9__gnu_cxx17__normal_iteratorIPiSt6vectorIiSaIiEEEEET_S7_
FNDA:22,_ZSt12__miter_baseIN9__gnu_cxx17__normal_iteratorIPiSt6vectorIiSaIiEEEEET_S7_
FN:544,_ZSt12__miter_baseIPiET_S1_
FNDA:0,_ZSt12__miter_baseIPiET_S1_
FN:544,_ZSt12__miter_baseIPPiET_S2_
FNDA:0,_ZSt12__miter_baseIPPiET_S2_
FN:544,_ZSt12__miter_baseIN9__gnu_cxx17__normal_iteratorIPKdSt6vectorIdSaIdEEEEET_S8_
FNDA:6000030,_ZSt12__miter_baseIN9__gnu_cxx17__normal_iteratorIPKdSt6vectorIdSaIdEEEEET_S8_
FN:544,_ZSt12__miter_baseIN9__gnu_cxx17__normal_iteratorIPKiSt6vectorIiSaIiEEEEET_S8_
FNDA:7906918,_ZSt12__miter_baseIN9__gnu_cxx17__normal_iteratorIPKiSt6vectorIiSaIiEEEEET_S8_
FN:544,_ZSt12__miter_baseIPKiET_S2_
FNDA:448,_ZSt12__miter_baseIPKiET_S2_
FN:544,_ZSt12__miter_baseISt19_Bit_const_iteratorET_S1_
FNDA:226,_ZSt12__miter_baseISt19_Bit_const_iteratorET_S1_
FN:544,_ZSt12__miter_baseIPmET_S1_
FNDA:226,_ZSt12__miter_baseIPmET_S1_
FN:544,_ZSt12__miter_baseIPSt6vectorIiSaIiEEET_S4_
FNDA:0,_ZSt12__miter_baseIPSt6vectorIiSaIiEEET_S4_
FN:544,_ZSt12__miter_baseIN9__gnu_cxx17__normal_iteratorIPKSt6vectorIiSaIiEES2_IS4_SaIS4_EEEEET_SA_
FNDA:80000,_ZSt12__miter_baseIN9__gnu_cxx17__normal_iteratorIPKSt6vectorIiSaIiEES2_IS4_SaIS4_EEEEET_SA_
FNF:10
FNH:7
DA:544,22
DA:545,22
DA:544,0
DA:545,0
DA:544,0
DA:545,0
DA:544,6000030
DA:545,6000030
DA:544,7906918
DA:545,7906918
DA:544,448
DA:545,448
DA:544,226
DA:545,226
DA:544,226
DA:545,226
DA:544,0
DA:545,0
DA:544,80000
DA:545,80000
LF:20
LH:14
end_of_record
SF:/Users/qylenett/Desktop/navigator/SimpleNavigator-v1.0/src/conteiners/s21_stack.h
FN:22,_ZN3s215StackIiNS_4ListIiEEEC1Ev
FNDA:21,_ZN3s215StackIiNS_4ListIiEEEC1Ev
FN:26,_ZN3s215StackIiNS_4ListIiEEED1Ev
FNDA:21,_ZN3s215StackIiNS_4ListIiEEED1Ev
FN:36,_ZN3s215StackIiNS_4ListIiEEE3topEv
FNDA:332,_ZN3s215StackIiNS_4ListIiEEE3topEv
FN:38,_ZN3s215StackIiNS_4ListIiEEE5emptyEv
FNDA:353,_ZN3s215StackIiNS_4ListIiEEE5emptyEv
FN:41,_ZN3s215StackIiNS_4ListIiEEE4pushERKi
FNDA:332,_ZN3s215StackIiNS_4ListIiEEE4pushERKi
FN:42,_ZN3s215StackIiNS_4ListIiEEE3popEv
FNDA:332,_ZN3s215StackIiNS_4ListIiEEE3popEv
FNF:6
FNH:6
DA:22,21
DA:26,21
DA:36,332
DA:38,353
DA:41,332
DA:42,332
LF:6
LH:6
end_of_record
SF:/usr/local/include/c++/10.3.0/typeinfo
FN:99,_ZNKSt9type_info4nameEv
FNDA:0,_ZNKSt9type_info4nameEv
FNF:1
FNH:0
DA:99,0
DA:100,0
LF:2
LH:0
end_of_record
SF:/usr/local/include/c++/10.3.0/bits/unique_ptr.h
FN:79,_ZNKSt14default_deleteINSt7__cxx1112basic_stringIcSt11char_traitsIcESaIcEEEEclEPS5_
FNDA:0,_ZNKSt14default_deleteINSt7__cxx1112basic_stringIcSt11char_traitsIcESaIcEEEEclEPS5_
FN:79,_ZNKSt14default_deleteINSt7__cxx1118basic_stringstreamIcSt11char_traitsIcESaIcEEEEclEPS5_
FNDA:124,_ZNKSt14default_deleteINSt7__cxx1118basic_stringstreamIcSt11char_traitsIcESaIcEEEEclEPS5_
FN:154,_ZNSt15__uniq_ptr_implINSt7__cxx1112basic_stringIcSt11char_traitsIcESaIcEEESt14default_deleteIS5_EEC2Ev
FNDA:3219,_ZNSt15__uniq_ptr_implINSt7__cxx1112basic_stringIcSt11char_traitsIcESaIcEEESt14default_deleteIS5_EEC2Ev
FN:172,_ZNSt15__uniq_ptr_implINSt7__cxx1112basic_stringIcSt11char_traitsIcESaIcEEESt14default_deleteIS5_EE6_M_ptrEv
FNDA:0,_ZNSt15__uniq_ptr_implINSt7__cxx1112basic_stringIcSt11char_traitsIcESaIcEEESt14default_deleteIS5_EE6_M_ptrEv
FN:172,_ZNSt15__uniq_ptr_implINSt7__cxx1118basic_stringstreamIcSt11char_traitsIcESaIcEEESt14default_deleteIS5_EE6_M_ptrEv
FNDA:0,_ZNSt15__uniq_ptr_implINSt7__cxx1118basic_stringstreamIcSt11char_traitsIcESaIcEEESt14default_deleteIS5_EE6_M_ptrEv
FN:173,_ZNKSt15__uniq_ptr_implINSt7__cxx1112basic_stringIcSt11char_traitsIcESaIcEEESt14default_deleteIS5_EE6_M_ptrEv
FNDA:0,_ZNKSt15__uniq_ptr_implINSt7__cxx1112basic_stringIcSt11char_traitsIcESaIcEEESt14default_deleteIS5_EE6_M_ptrEv
FN:174,_ZNSt15__uniq_ptr_implINSt7__cxx1112basic_stringIcSt11char_traitsIcESaIcEEESt14default_deleteIS5_EE10_M_deleterEv
FNDA:0,_ZNSt15__uniq_ptr_implINSt7__cxx1112basic_stringIcSt11char_traitsIcESaIcEEESt14default_deleteIS5_EE10_M_deleterEv
FN:174,_ZNSt15__uniq_ptr_implINSt7__cxx1118basic_stringstreamIcSt11char_traitsIcESaIcEEESt14default_deleteIS5_EE10_M_deleterEv
FNDA:0,_ZNSt15__uniq_ptr_implINSt7__cxx1118basic_stringstreamIcSt11char_traitsIcESaIcEEESt14default_deleteIS5_EE10_M_deleterEv
FN:269,_ZNSt10unique_ptrINSt7__cxx1112basic_stringIcSt11char_traitsIcESaIcEEESt14default_deleteIS5_EEC1IS7_vEEv
FNDA:3219,_ZNSt10unique_ptrINSt7__cxx1112basic_stringIcSt11char_traitsIcESaIcEEESt14default_deleteIS5_EEC1IS7_vEEv
FN:355,_ZNSt10unique_ptrINSt7__cxx1112basic_stringIcSt11char_traitsIcESaIcEEESt14default_deleteIS5_EED1Ev
FNDA:3219,_ZNSt10unique_ptrINSt7__cxx1112basic_stringIcSt11char_traitsIcESaIcEEESt14default_deleteIS5_EED1Ev
FN:355,_ZNSt10unique_ptrINSt7__cxx1118basic_stringstreamIcSt11char_traitsIcESaIcEEESt14default_deleteIS5_EED1Ev
FNDA:0,_ZNSt10unique_ptrINSt7__cxx1118basic_stringstreamIcSt11char_traitsIcESaIcEEESt14default_deleteIS5_EED1Ev
FN:413,_ZNKSt10unique_ptrINSt7__cxx1112basic_stringIcSt11char_traitsIcESaIcEEESt14default_deleteIS5_EEptEv
FNDA:0,_ZNKSt10unique_ptrINSt7__cxx1112basic_stringIcSt11char_traitsIcESaIcEEESt14default_deleteIS5_EEptEv
FN:421,_ZNKSt10unique_ptrINSt7__cxx1112basic_stringIcSt11char_traitsIcESaIcEEESt14default_deleteIS5_EE3getEv
FNDA:0,_ZNKSt10unique_ptrINSt7__cxx1112basic_stringIcSt11char_traitsIcESaIcEEESt14default_deleteIS5_EE3getEv
FN:426,_ZNSt10unique_ptrINSt7__cxx1112basic_stringIcSt11char_traitsIcESaIcEEESt14default_deleteIS5_EE11get_deleterEv
FNDA:0,_ZNSt10unique_ptrINSt7__cxx1112basic_stringIcSt11char_traitsIcESaIcEEESt14default_deleteIS5_EE11get_deleterEv
FN:426,_ZNSt10unique_ptrINSt7__cxx1118basic_stringstreamIcSt11char_traitsIcESaIcEEESt14default_deleteIS5_EE11get_deleterEv
FNDA:124,_ZNSt10unique_ptrINSt7__cxx1118basic_stringstreamIcSt11char_traitsIcESaIcEEESt14default_deleteIS5_EE11get_deleterEv
FNF:15
FNH:5
DA:79,0
DA:85,0
DA:86,0
DA:79,124
DA:85,124
DA:86,124
DA:154,3219
DA:172,0
DA:172,0
DA:173,0
DA:174,0
DA:174,0
DA:269,3219
DA:270,3219
DA:271,3219
DA:355,3219
DA:359,3219
DA:360,3219
DA:361,0
DA:362,3219
DA:363,3219
DA:355,0
DA:359,0
DA:360,0
DA:361,0
DA:362,0
DA:363,0
DA:413,0
DA:416,0
DA:421,0
DA:422,0
DA:426,0
DA:427,0
DA:426,124
DA:427,124
LF:35
LH:14
end_of_record
SF:/Users/qylenett/Desktop/navigator/SimpleNavigator-v1.0/src/tests/dfs_tests.cc
FN:4,_ZN3s2173GraphAlgorithmsTest_test_DFS_simple_graph_3_check_all_vert_and_throw_TestC1Ev
FNDA:1,_ZN3s2173GraphAlgorithmsTest_test_DFS_simple_graph_3_check_all_vert_and_throw_TestC1Ev
FN:4,_ZN3s2173GraphAlgorithmsTest_test_DFS_simple_graph_3_check_all_vert_and_throw_Test8TestBodyEv
FNDA:1,_ZN3s2173GraphAlgorithmsTest_test_DFS_simple_graph_3_check_all_vert_and_throw_Test8TestBodyEv
FN:4,_ZN3s2173GraphAlgorithmsTest_test_DFS_simple_graph_3_check_all_vert_and_throw_TestD1Ev
FNDA:1,_ZN3s2173GraphAlgorithmsTest_test_DFS_simple_graph_3_check_all_vert_and_throw_TestD1Ev
FN:4,_ZN3s2173GraphAlgorithmsTest_test_DFS_simple_graph_3_check_all_vert_and_throw_TestD0Ev
FNDA:1,_ZN3s2173GraphAlgorithmsTest_test_DFS_simple_graph_3_check_all_vert_and_throw_TestD0Ev
FN:45,_ZN3s2170GraphAlgorithmsTest_test_DFS_simple_graph_13_check_vers_and_throw_TestC1Ev
FNDA:1,_ZN3s2170GraphAlgorithmsTest_test_DFS_simple_graph_13_check_vers_and_throw_TestC1Ev
FN:45,_ZN3s2170GraphAlgorithmsTest_test_DFS_simple_graph_13_check_vers_and_throw_Test8TestBodyEv
FNDA:1,_ZN3s2170GraphAlgorithmsTest_test_DFS_simple_graph_13_check_vers_and_throw_Test8TestBodyEv
FN:45,_ZN3s2170GraphAlgorithmsTest_test_DFS_simple_graph_13_check_vers_and_throw_TestD1Ev
FNDA:1,_ZN3s2170GraphAlgorithmsTest_test_DFS_simple_graph_13_check_vers_and_throw_TestD1Ev
FN:45,_ZN3s2170GraphAlgorithmsTest_test_DFS_simple_graph_13_check_vers_and_throw_TestD0Ev
FNDA:1,_ZN3s2170GraphAlgorithmsTest_test_DFS_simple_graph_13_check_vers_and_throw_TestD0Ev
FN:80,_ZN3s2171GraphAlgorithmsTest_test_DFS_directed_graph_8_check_directed_verts_TestC1Ev
FNDA:1,_ZN3s2171GraphAlgorithmsTest_test_DFS_directed_graph_8_check_directed_verts_TestC1Ev
FN:80,_ZN3s2171GraphAlgorithmsTest_test_DFS_directed_graph_8_check_directed_verts_TestD0Ev
FNDA:1,_ZN3s2171GraphAlgorithmsTest_test_DFS_directed_graph_8_check_directed_verts_TestD0Ev
FN:80,_ZN3s2171GraphAlgorithmsTest_test_DFS_directed_graph_8_check_directed_verts_TestD1Ev
FNDA:1,_ZN3s2171GraphAlgorithmsTest_test_DFS_directed_graph_8_check_directed_verts_TestD1Ev
FN:80,_ZN3s2171GraphAlgorithmsTest_test_DFS_directed_graph_8_check_directed_verts_Test8TestBodyEv
FNDA:1,_ZN3s2171GraphAlgorithmsTest_test_DFS_directed_graph_8_check_directed_verts_Test8TestBodyEv
FN:105,_ZN3s2167GraphAlgorithmsTest_test_DFS_directed_graph_21_check_big_graph_TestD0Ev
FNDA:1,_ZN3s2167GraphAlgorithmsTest_test_DFS_directed_graph_21_check_big_graph_TestD0Ev
FN:105,_ZN3s2167GraphAlgorithmsTest_test_DFS_directed_graph_21_check_big_graph_TestD1Ev
FNDA:1,_ZN3s2167GraphAlgorithmsTest_test_DFS_directed_graph_21_check_big_graph_TestD1Ev
FN:105,_ZN3s2167GraphAlgorithmsTest_test_DFS_directed_graph_21_check_big_graph_TestC1Ev
FNDA:1,_ZN3s2167GraphAlgorithmsTest_test_DFS_directed_graph_21_check_big_graph_TestC1Ev
FN:105,_ZN3s2167GraphAlgorithmsTest_test_DFS_directed_graph_21_check_big_graph_Test8TestBodyEv
FNDA:1,_ZN3s2167GraphAlgorithmsTest_test_DFS_directed_graph_21_check_big_graph_Test8TestBodyEv
FN:135,_ZN3s2162GraphAlgorithmsTest_test_DFS_weighted_graph_9_check_verts_TestC1Ev
FNDA:1,_ZN3s2162GraphAlgorithmsTest_test_DFS_weighted_graph_9_check_verts_TestC1Ev
FN:135,_ZN3s2162GraphAlgorithmsTest_test_DFS_weighted_graph_9_check_verts_TestD0Ev
FNDA:1,_ZN3s2162GraphAlgorithmsTest_test_DFS_weighted_graph_9_check_verts_TestD0Ev
FN:135,_ZN3s2162GraphAlgorithmsTest_test_DFS_weighted_graph_9_check_verts_TestD1Ev
FNDA:1,_ZN3s2162GraphAlgorithmsTest_test_DFS_weighted_graph_9_check_verts_TestD1Ev
FN:135,_ZN3s2162GraphAlgorithmsTest_test_DFS_weighted_graph_9_check_verts_Test8TestBodyEv
FNDA:1,_ZN3s2162GraphAlgorithmsTest_test_DFS_weighted_graph_9_check_verts_Test8TestBodyEv
FN:166,_ZN3s2174GraphAlgorithmsTest_test_DFS_weighted_directed_graph_8_check_all_vert_TestD1Ev
FNDA:1,_ZN3s2174GraphAlgorithmsTest_test_DFS_weighted_directed_graph_8_check_all_vert_TestD1Ev
FN:166,_ZN3s2174GraphAlgorithmsTest_test_DFS_weighted_directed_graph_8_check_all_vert_Test8TestBodyEv
FNDA:1,_ZN3s2174GraphAlgorithmsTest_test_DFS_weighted_directed_graph_8_check_all_vert_Test8TestBodyEv
FN:166,_ZN3s2174GraphAlgorithmsTest_test_DFS_weighted_directed_graph_8_check_all_vert_TestD0Ev
FNDA:1,_ZN3s2174GraphAlgorithmsTest_test_DFS_weighted_directed_graph_8_check_all_vert_TestD0Ev
FN:166,_ZN3s2174GraphAlgorithmsTest_test_DFS_weighted_directed_graph_8_check_all_vert_TestC1Ev
FNDA:1,_ZN3s2174GraphAlgorithmsTest_test_DFS_weighted_directed_graph_8_check_all_vert_TestC1Ev
FN:237,_ZN3s2148GraphAlgorithmsTest_test_DFS_very_big_graph_Test8TestBodyEv
FNDA:1,_ZN3s2148GraphAlgorithmsTest_test_DFS_very_big_graph_Test8TestBodyEv
FN:237,_ZN3s2148GraphAlgorithmsTest_test_DFS_very_big_graph_TestD1Ev
FNDA:1,_ZN3s2148GraphAlgorithmsTest_test_DFS_very_big_graph_TestD1Ev
FN:237,_ZN3s2148GraphAlgorithmsTest_test_DFS_very_big_graph_TestD0Ev
FNDA:1,_ZN3s2148GraphAlgorithmsTest_test_DFS_very_big_graph_TestD0Ev
FN:237,_ZN3s2148GraphAlgorithmsTest_test_DFS_very_big_graph_TestC1Ev
FNDA:1,_ZN3s2148GraphAlgorithmsTest_test_DFS_very_big_graph_TestC1Ev
FNF:28
FNH:28
DA:4,1
DA:4,1
DA:4,1
DA:4,1
DA:5,1
DA:6,1
DA:7,1
DA:8,1
DA:9,1
DA:10,1
DA:11,1
DA:12,1
DA:13,1
DA:14,4
DA:15,3
DA:18,1
DA:19,1
DA:20,1
DA:21,1
DA:22,1
DA:23,4
DA:24,3
DA:27,1
DA:28,1
DA:29,1
DA:30,1
DA:31,1
DA:32,4
DA:33,3
DA:36,1
DA:37,1
DA:38,1
DA:40,1
DA:41,1
DA:42,1
DA:45,1
DA:45,1
DA:45,1
DA:45,1
DA:46,1
DA:47,1
DA:48,1
DA:49,1
DA:50,1
DA:51,1
DA:52,1
DA:53,1
DA:55,1
DA:57,14
DA:58,13
DA:61,1
DA:62,1
DA:63,1
DA:64,1
DA:65,1
DA:67,14
DA:68,13
DA:71,1
DA:72,1
DA:73,1
DA:75,1
DA:76,1
DA:77,1
DA:80,1
DA:80,1
DA:80,1
DA:80,1
DA:81,1
DA:82,1
DA:83,1
DA:84,1
DA:85,1
DA:86,1
DA:87,1
DA:88,1
DA:90,1
DA:91,9
DA:92,8
DA:95,1
DA:96,1
DA:97,1
DA:98,1
DA:99,1
DA:100,9
DA:101,8
DA:105,1
DA:105,1
DA:105,1
DA:105,1
DA:106,1
DA:107,1
DA:108,1
DA:109,1
DA:110,1
DA:111,1
DA:112,1
DA:113,1
DA:115,0
DA:116,1
DA:117,22
DA:118,21
DA:121,1
DA:122,1
DA:123,1
DA:124,1
DA:125,0
DA:126,1
DA:127,20
DA:128,19
DA:131,1
DA:132,1
DA:135,1
DA:135,1
DA:135,1
DA:135,1
DA:136,1
DA:137,1
DA:138,1
DA:139,1
DA:140,1
DA:141,1
DA:142,1
DA:143,1
DA:144,1
DA:145,10
DA:146,9
DA:148,1
DA:149,1
DA:150,1
DA:151,1
DA:152,1
DA:153,10
DA:154,9
DA:156,1
DA:157,1
DA:158,1
DA:159,1
DA:160,1
DA:161,10
DA:162,9
DA:166,1
DA:166,1
DA:166,1
DA:166,1
DA:167,1
DA:168,1
DA:169,1
DA:170,1
DA:171,1
DA:172,1
DA:173,1
DA:174,1
DA:175,1
DA:176,9
DA:177,8
DA:179,1
DA:180,1
DA:181,1
DA:182,1
DA:183,1
DA:184,7
DA:185,6
DA:187,1
DA:188,1
DA:189,1
DA:190,1
DA:191,1
DA:192,6
DA:193,5
DA:195,1
DA:196,1
DA:197,1
DA:198,1
DA:199,1
DA:200,6
DA:201,5
DA:203,1
DA:204,1
DA:205,1
DA:206,1
DA:207,1
DA:208,6
DA:209,5
DA:211,1
DA:212,1
DA:213,1
DA:214,1
DA:215,1
DA:216,6
DA:217,5
DA:219,1
DA:220,1
DA:221,1
DA:222,1
DA:223,1
DA:224,6
DA:225,5
DA:227,1
DA:228,1
DA:229,1
DA:230,1
DA:231,1
DA:232,7
DA:233,6
DA:237,1
DA:237,1
DA:237,1
DA:237,1
DA:238,1
DA:239,1
DA:240,1
DA:241,1
DA:242,1
DA:243,1
DA:244,1
DA:245,1
DA:246,0
DA:248,1
DA:249,51
DA:250,50
LF:220
LH:217
end_of_record
SF:/usr/local/include/c++/10.3.0/bits/stl_queue.h
FN:514,_ZNSt14priority_queueISt4pairIiiESt6vectorIS1_SaIS1_EESt4lessIS1_EEC1IS4_vEEv
FNDA:16,_ZNSt14priority_queueISt4pairIiiESt6vectorIS1_SaIS1_EESt4lessIS1_EEC1IS4_vEEv
FN:612,_ZNKSt14priority_queueISt4pairIiiESt6vectorIS1_SaIS1_EESt4lessIS1_EE5emptyEv
FNDA:466,_ZNKSt14priority_queueISt4pairIiiESt6vectorIS1_SaIS1_EESt4lessIS1_EE5emptyEv
FN:625,_ZNKSt14priority_queueISt4pairIiiESt6vectorIS1_SaIS1_EESt4lessIS1_EE3topEv
FNDA:900,_ZNKSt14priority_queueISt4pairIiiESt6vectorIS1_SaIS1_EESt4lessIS1_EE3topEv
FN:648,_ZNSt14priority_queueISt4pairIiiESt6vectorIS1_SaIS1_EESt4lessIS1_EE4pushEOS1_
FNDA:450,_ZNSt14priority_queueISt4pairIiiESt6vectorIS1_SaIS1_EESt4lessIS1_EE4pushEOS1_
FN:675,_ZNSt14priority_queueISt4pairIiiESt6vectorIS1_SaIS1_EESt4lessIS1_EE3popEv
FNDA:450,_ZNSt14priority_queueISt4pairIiiESt6vectorIS1_SaIS1_EESt4lessIS1_EE3popEv
FNF:5
FNH:5
DA:514,16
DA:515,16
DA:612,466
DA:613,466
DA:625,900
DA:628,900
DA:648,450
DA:650,450
DA:651,450
DA:652,450
DA:675,450
DA:678,450
DA:679,450
DA:680,450
LF:14
LH:14
end_of_record
SF:/usr/local/include/c++/10.3.0/bits/move.h
FN:49,_ZSt11__addressofImEPT_RS0_
FNDA:289,_ZSt11__addressofImEPT_RS0_
FN:49,_ZSt11__addressofISt4pairIiiEEPT_RS2_
FNDA:627,_ZSt11__addressofISt4pairIiiEEPT_RS2_
FN:49,_ZSt11__addressofISt6vectorIdSaIdEEEPT_RS3_
FNDA:5480030,_ZSt11__addressofISt6vectorIdSaIdEEEPT_RS3_
FN:49,_ZSt11__addressofISt6vectorIiSaIiEEEPT_RS3_
FNDA:7304947,_ZSt11__addressofISt6vectorIiSaIiEEEPT_RS3_
FN:76,_ZSt7forwardISt4pairIiiEEOT_RNSt16remove_referenceIS2_E4typeE
FNDA:1844,_ZSt7forwardISt4pairIiiEEOT_RNSt16remove_referenceIS2_E4typeE
FN:76,_ZSt7forwardIRiEOT_RNSt16remove_referenceIS1_E4typeE
FNDA:768,_ZSt7forwardIRiEOT_RNSt16remove_referenceIS1_E4typeE
FN:76,_ZSt7forwardIiEOT_RNSt16remove_referenceIS0_E4typeE
FNDA:10677,_ZSt7forwardIiEOT_RNSt16remove_referenceIS0_E4typeE
FN:76,_ZSt7forwardIRKiEOT_RNSt16remove_referenceIS2_E4typeE
FNDA:902079,_ZSt7forwardIRKiEOT_RNSt16remove_referenceIS2_E4typeE
FN:76,_ZSt7forwardIRKSt4pairIiiEEOT_RNSt16remove_referenceIS4_E4typeE
FNDA:12,_ZSt7forwardIRKSt4pairIiiEEOT_RNSt16remove_referenceIS4_E4typeE
FN:76,_ZSt7forwardISt6vectorIiSaIiEEEOT_RNSt16remove_referenceIS3_E4typeE
FNDA:3878,_ZSt7forwardISt6vectorIiSaIiEEEOT_RNSt16remove_referenceIS3_E4typeE
FN:76,_ZSt7forwardIRKSt6vectorIiSaIiEEEOT_RNSt16remove_referenceIS5_E4typeE
FNDA:3650464,_ZSt7forwardIRKSt6vectorIiSaIiEEEOT_RNSt16remove_referenceIS5_E4typeE
FN:76,_ZSt7forwardIRSt6vectorIiSaIiEEEOT_RNSt16remove_referenceIS4_E4typeE
FNDA:0,_ZSt7forwardIRSt6vectorIiSaIiEEEOT_RNSt16remove_referenceIS4_E4typeE
FN:76,_ZSt7forwardIRKSt6vectorIdSaIdEEEOT_RNSt16remove_referenceIS5_E4typeE
FNDA:2740015,_ZSt7forwardIRKSt6vectorIdSaIdEEEOT_RNSt16remove_referenceIS5_E4typeE
FN:101,_ZSt4moveIRSaIiEEONSt16remove_referenceIT_E4typeEOS3_
FNDA:47,_ZSt4moveIRSaIiEEONSt16remove_referenceIT_E4typeEOS3_
FN:101,_ZSt4moveIRSaISt6vectorIiSaIiEEEEONSt16remove_referenceIT_E4typeEOS6_
FNDA:5,_ZSt4moveIRSaISt6vectorIiSaIiEEEEONSt16remove_referenceIT_E4typeEOS6_
FN:101,_ZSt4moveIRN9__gnu_cxx5__ops15_Iter_comp_iterISt4lessISt4pairIiiEEEEEONSt16remove_referenceIT_E4typeEOSA_
FNDA:413,_ZSt4moveIRN9__gnu_cxx5__ops15_Iter_comp_iterISt4lessISt4pairIiiEEEEEONSt16remove_referenceIT_E4typeEOSA_
FN:101,_ZSt4moveIRPSt6vectorIiSaIiEEEONSt16remove_referenceIT_E4typeEOS6_
FNDA:220,_ZSt4moveIRPSt6vectorIiSaIiEEEONSt16remove_referenceIT_E4typeEOS6_
FN:101,_ZSt4moveIRN9__gnu_cxx17__normal_iteratorIPiSt6vectorIiSaIiEEEEEONSt16remove_referenceIT_E4typeEOS9_
FNDA:22,_ZSt4moveIRN9__gnu_cxx17__normal_iteratorIPiSt6vectorIiSaIiEEEEEONSt16remove_referenceIT_E4typeEOS9_
FN:101,_ZSt4moveIRiEONSt16remove_referenceIT_E4typeEOS2_
FNDA:0,_ZSt4moveIRiEONSt16remove_referenceIT_E4typeEOS2_
FN:101,_ZSt4moveIRSt6vectorIS0_IiSaIiEESaIS2_EEEONSt16remove_referenceIT_E4typeEOS7_
FNDA:5,_ZSt4moveIRSt6vectorIS0_IiSaIiEESaIS2_EEEONSt16remove_referenceIT_E4typeEOS7_
FN:101,_ZSt4moveIRSt4lessISt4pairIiiEEEONSt16remove_referenceIT_E4typeEOS6_
FNDA:1313,_ZSt4moveIRSt4lessISt4pairIiiEEEONSt16remove_referenceIT_E4typeEOS6_
FN:101,_ZSt4moveIRSt4pairIiiEEONSt16remove_referenceIT_E4typeEOS4_
FNDA:5848,_ZSt4moveIRSt4pairIiiEEONSt16remove_referenceIT_E4typeEOS4_
FN:101,_ZSt4moveIRNSt12_Vector_baseIiSaIiEE12_Vector_implEEONSt16remove_referenceIT_E4typeEOS6_
FNDA:2962,_ZSt4moveIRNSt12_Vector_baseIiSaIiEE12_Vector_implEEONSt16remove_referenceIT_E4typeEOS6_
FN:101,_ZSt4moveIRPNSt7__cxx1112basic_stringIcSt11char_traitsIcESaIcEEEEONSt16remove_referenceIT_E4typeEOS9_
FNDA:0,_ZSt4moveIRPNSt7__cxx1112basic_stringIcSt11char_traitsIcESaIcEEEEONSt16remove_referenceIT_E4typeEOS9_
FN:101,_ZSt4moveIRPNSt7__cxx1118basic_stringstreamIcSt11char_traitsIcESaIcEEEEONSt16remove_referenceIT_E4typeEOS9_
FNDA:0,_ZSt4moveIRPNSt7__cxx1118basic_stringstreamIcSt11char_traitsIcESaIcEEEEONSt16remove_referenceIT_E4typeEOS9_
FN:101,_ZSt4moveIRSt6vectorIiSaIiEEEONSt16remove_referenceIT_E4typeEOS5_
FNDA:1541,_ZSt4moveIRSt6vectorIiSaIiEEEONSt16remove_referenceIT_E4typeEOS5_
FNF:26
FNH:22
DA:49,627
DA:50,627
DA:49,5480030
DA:50,5480030
DA:49,7304947
DA:50,7304947
DA:49,289
DA:50,289
DA:76,12
DA:77,12
DA:76,2740015
DA:77,2740015
DA:76,0
DA:77,0
DA:76,3650464
DA:77,3650464
DA:76,3878
DA:77,3878
DA:76,1844
DA:77,1844
DA:76,902079
DA:77,902079
DA:76,10677
DA:77,10677
DA:76,768
DA:77,768
DA:101,22
DA:102,22
DA:101,220
DA:102,220
DA:101,413
DA:102,413
DA:101,47
DA:102,47
DA:101,5
DA:102,5
DA:101,0
DA:102,0
DA:101,5
DA:102,5
DA:101,1313
DA:102,1313
DA:101,5848
DA:102,5848
DA:101,2962
DA:102,2962
DA:101,0
DA:102,0
DA:101,0
DA:102,0
DA:101,1541
DA:102,1541
LF:52
LH:44
end_of_record
SF:/usr/local/include/gtest/internal/gtest-internal.h
FN:456,_ZN7testing8internal15TestFactoryBaseD2Ev
FNDA:0,_ZN7testing8internal15TestFactoryBaseD2Ev
FN:463,_ZN7testing8internal15TestFactoryBaseC2Ev
FNDA:0,_ZN7testing8internal15TestFactoryBaseC2Ev
FN:474,_ZN7testing8internal15TestFactoryImplIN3s2125Graph_DIM_NEGATIVE_2_TestEE10CreateTestEv
FNDA:1,_ZN7testing8internal15TestFactoryImplIN3s2125Graph_DIM_NEGATIVE_2_TestEE10CreateTestEv
FN:474,_ZN7testing8internal15TestFactoryImplIN3s2136GraphAlgorithmsTest_getEdgeList_TestEE10CreateTestEv
FNDA:1,_ZN7testing8internal15TestFactoryImplIN3s2136GraphAlgorithmsTest_getEdgeList_TestEE10CreateTestEv
FN:474,_ZN7testing8internal15TestFactoryImplIN3s2123Graph_DIM_NEGATIVE_TestEE10CreateTestEv
FNDA:1,_ZN7testing8internal15TestFactoryImplIN3s2123Graph_DIM_NEGATIVE_TestEE10CreateTestEv
FN:474,_ZN7testing8internal15TestFactoryImplIN3s2122Graph_CheckFile10_TestEE10CreateTestEv
FNDA:1,_ZN7testing8internal15TestFactoryImplIN3s2122Graph_CheckFile10_TestEE10CreateTestEv
FN:474,_ZN7testing8internal15TestFactoryImplIN3s2121Graph_CheckFile6_TestEE10CreateTestEv
FNDA:1,_ZN7testing8internal15TestFactoryImplIN3s2121Graph_CheckFile6_TestEE10CreateTestEv
FN:474,_ZN7testing8internal15TestFactoryImplIN3s2121Graph_CheckFile5_TestEE10CreateTestEv
FNDA:1,_ZN7testing8internal15TestFactoryImplIN3s2121Graph_CheckFile5_TestEE10CreateTestEv
FN:474,_ZN7testing8internal15TestFactoryImplIN3s2121Graph_CheckFile4_TestEE10CreateTestEv
FNDA:1,_ZN7testing8internal15TestFactoryImplIN3s2121Graph_CheckFile4_TestEE10CreateTestEv
FN:474,_ZN7testing8internal15TestFactoryImplIN3s2121Graph_CheckFile3_TestEE10CreateTestEv
FNDA:1,_ZN7testing8internal15TestFactoryImplIN3s2121Graph_CheckFile3_TestEE10CreateTestEv
FN:474,_ZN7testing8internal15TestFactoryImplIN3s2121Graph_CheckFile2_TestEE10CreateTestEv
FNDA:1,_ZN7testing8internal15TestFactoryImplIN3s2121Graph_CheckFile2_TestEE10CreateTestEv
FN:474,_ZN7testing8internal15TestFactoryImplIN3s2135GraphAlgorithmsTest_CheckFile1_TestEE10CreateTestEv
FNDA:1,_ZN7testing8internal15TestFactoryImplIN3s2135GraphAlgorithmsTest_CheckFile1_TestEE10CreateTestEv
FN:474,_ZN7testing8internal15TestFactoryImplIN3s2130Graph_Graph_DOTerror_Test_TestEE10CreateTestEv
FNDA:1,_ZN7testing8internal15TestFactoryImplIN3s2130Graph_Graph_DOTerror_Test_TestEE10CreateTestEv
FN:474,_ZN7testing8internal15TestFactoryImplIN3s2158GraphAlgorithmsTest_ExportGraphToDot_ErrorOpeningFile_TestEE10CreateTestEv
FNDA:1,_ZN7testing8internal15TestFactoryImplIN3s2158GraphAlgorithmsTest_ExportGraphToDot_ErrorOpeningFile_TestEE10CreateTestEv
FN:474,_ZN7testing8internal15TestFactoryImplIN3s2173GraphAlgorithmsTest_test_BFS_simple_graph_3_check_all_vert_and_throw_TestEE10CreateTestEv
FNDA:1,_ZN7testing8internal15TestFactoryImplIN3s2173GraphAlgorithmsTest_test_BFS_simple_graph_3_check_all_vert_and_throw_TestEE10CreateTestEv
FN:474,_ZN7testing8internal15TestFactoryImplIN3s2128GraphAlgorithmsTest_DOT_TestEE10CreateTestEv
FNDA:1,_ZN7testing8internal15TestFactoryImplIN3s2128GraphAlgorithmsTest_DOT_TestEE10CreateTestEv
FN:474,_ZN7testing8internal15TestFactoryImplIN3s2141GraphAlgorithmsTest_errorOpeningFile_TestEE10CreateTestEv
FNDA:1,_ZN7testing8internal15TestFactoryImplIN3s2141GraphAlgorithmsTest_errorOpeningFile_TestEE10CreateTestEv
FN:474,_ZN7testing8internal15TestFactoryImplIN3s2144GraphAlgorithmsTest_Graph_DOTerror_Test_TestEE10CreateTestEv
FNDA:1,_ZN7testing8internal15TestFactoryImplIN3s2144GraphAlgorithmsTest_Graph_DOTerror_Test_TestEE10CreateTestEv
FN:474,_ZN7testing8internal15TestFactoryImplIN3s2121Graph_FILE_EMPTY_TestEE10CreateTestEv
FNDA:1,_ZN7testing8internal15TestFactoryImplIN3s2121Graph_FILE_EMPTY_TestEE10CreateTestEv
FN:474,_ZN7testing8internal15TestFactoryImplIN3s2129Graph_Graph_connectivity_TestEE10CreateTestEv
FNDA:1,_ZN7testing8internal15TestFactoryImplIN3s2129Graph_Graph_connectivity_TestEE10CreateTestEv
FN:474,_ZN7testing8internal15TestFactoryImplIN3s2131Graph_Graph_connectivity_2_TestEE10CreateTestEv
FNDA:1,_ZN7testing8internal15TestFactoryImplIN3s2131Graph_Graph_connectivity_2_TestEE10CreateTestEv
FN:474,_ZN7testing8internal15TestFactoryImplIN3s2131Graph_Graph_connectivity_3_TestEE10CreateTestEv
FNDA:1,_ZN7testing8internal15TestFactoryImplIN3s2131Graph_Graph_connectivity_3_TestEE10CreateTestEv
FN:474,_ZN7testing8internal15TestFactoryImplIN3s2131Graph_Graph_connectivity_4_TestEE10CreateTestEv
FNDA:1,_ZN7testing8internal15TestFactoryImplIN3s2131Graph_Graph_connectivity_4_TestEE10CreateTestEv
FN:474,_ZN7testing8internal15TestFactoryImplIN3s2131Graph_Graph_connectivity_5_TestEE10CreateTestEv
FNDA:1,_ZN7testing8internal15TestFactoryImplIN3s2131Graph_Graph_connectivity_5_TestEE10CreateTestEv
FN:474,_ZN7testing8internal15TestFactoryImplIN3s2131Graph_Graph_connectivity_6_TestEE10CreateTestEv
FNDA:1,_ZN7testing8internal15TestFactoryImplIN3s2131Graph_Graph_connectivity_6_TestEE10CreateTestEv
FN:474,_ZN7testing8internal15TestFactoryImplIN3s2131Graph_Graph_connectivity_7_TestEE10CreateTestEv
FNDA:1,_ZN7testing8internal15TestFactoryImplIN3s2131Graph_Graph_connectivity_7_TestEE10CreateTestEv
FN:474,_ZN7testing8internal15TestFactoryImplIN3s21111GraphAlgorithmsTest_test_GetLeastSpanningTree_working_with_simple_graph_compare_weights_results_and_matrix_TestEE10CreateTestEv
FNDA:1,_ZN7testing8internal15TestFactoryImplIN3s21111GraphAlgorithmsTest_test_GetLeastSpanningTree_working_with_simple_graph_compare_weights_results_and_matrix_TestEE10CreateTestEv
FN:474,_ZN7testing8internal15TestFactoryImplIN3s21111GraphAlgorithmsTest_test_GetLeastSpanningTree_2_workingwithdirected_graph_compare_weight_result_and_matrix_TestEE10CreateTestEv
FNDA:1,_ZN7testing8internal15TestFactoryImplIN3s21111GraphAlgorithmsTest_test_GetLeastSpanningTree_2_workingwithdirected_graph_compare_weight_result_and_matrix_TestEE10CreateTestEv
FN:474,_ZN7testing8internal15TestFactoryImplIN3s21109GraphAlgorithmsTest_test_GetLeastSpanningTree_3_simple_graph_unweighted_compare_weight_result_and_matrix_TestEE10CreateTestEv
FNDA:1,_ZN7testing8internal15TestFactoryImplIN3s21109GraphAlgorithmsTest_test_GetLeastSpanningTree_3_simple_graph_unweighted_compare_weight_result_and_matrix_TestEE10CreateTestEv
FN:474,_ZN7testing8internal15TestFactoryImplIN3s2195GraphAlgorithmsTest_test_GetLeastSpanningTree_3_simple_graph_simple_10_vert_for_check_tree_TestEE10CreateTestEv
FNDA:1,_ZN7testing8internal15TestFactoryImplIN3s2195GraphAlgorithmsTest_test_GetLeastSpanningTree_3_simple_graph_simple_10_vert_for_check_tree_TestEE10CreateTestEv
FN:474,_ZN7testing8internal15TestFactoryImplIN3s2165GraphAlgorithmsTest_test_GetLeastSpanningTree_very_big_graph_TestEE10CreateTestEv
FNDA:1,_ZN7testing8internal15TestFactoryImplIN3s2165GraphAlgorithmsTest_test_GetLeastSpanningTree_very_big_graph_TestEE10CreateTestEv
FN:474,_ZN7testing8internal15TestFactoryImplIN3s2136AntTest_weighted_graph_4_vert_1_TestEE10CreateTestEv
FNDA:1,_ZN7testing8internal15TestFactoryImplIN3s2136AntTest_weighted_graph_4_vert_1_TestEE10CreateTestEv
FN:474,_ZN7testing8internal15TestFactoryImplIN3s2135AntTest_weighted_graph_11_vert_TestEE10CreateTestEv
FNDA:1,_ZN7testing8internal15TestFactoryImplIN3s2135AntTest_weighted_graph_11_vert_TestEE10CreateTestEv
FN:474,_ZN7testing8internal15TestFactoryImplIN3s2142GraphAlgorithmsTest_ShortestPathCase6_TestEE10CreateTestEv
FNDA:1,_ZN7testing8internal15TestFactoryImplIN3s2142GraphAlgorithmsTest_ShortestPathCase6_TestEE10CreateTestEv
FN:474,_ZN7testing8internal15TestFactoryImplIN3s2171GraphAlgorithmsTest_test_BFS_simple_graph_13_check_verts_and_throw_TestEE10CreateTestEv
FNDA:1,_ZN7testing8internal15TestFactoryImplIN3s2171GraphAlgorithmsTest_test_BFS_simple_graph_13_check_verts_and_throw_TestEE10CreateTestEv
FN:474,_ZN7testing8internal15TestFactoryImplIN3s2161GraphAlgorithmsTest_test_BFS_directed_graph_8_check_vert_TestEE10CreateTestEv
FNDA:1,_ZN7testing8internal15TestFactoryImplIN3s2161GraphAlgorithmsTest_test_BFS_directed_graph_8_check_vert_TestEE10CreateTestEv
FN:474,_ZN7testing8internal15TestFactoryImplIN3s2167GraphAlgorithmsTest_test_BFS_directed_graph_21_check_big_graph_TestEE10CreateTestEv
FNDA:1,_ZN7testing8internal15TestFactoryImplIN3s2167GraphAlgorithmsTest_test_BFS_directed_graph_21_check_big_graph_TestEE10CreateTestEv
FN:474,_ZN7testing8internal15TestFactoryImplIN3s2161GraphAlgorithmsTest_test_BFS_weighted_graph_9_check_vert_TestEE10CreateTestEv
FNDA:1,_ZN7testing8internal15TestFactoryImplIN3s2161GraphAlgorithmsTest_test_BFS_weighted_graph_9_check_vert_TestEE10CreateTestEv
FN:474,_ZN7testing8internal15TestFactoryImplIN3s2148GraphAlgorithmsTest_test_BFS_very_big_graph_TestEE10CreateTestEv
FNDA:1,_ZN7testing8internal15TestFactoryImplIN3s2148GraphAlgorithmsTest_test_BFS_very_big_graph_TestEE10CreateTestEv
FN:474,_ZN7testing8internal15TestFactoryImplIN3s2142GraphAlgorithmsTest_ShortestPathCase1_TestEE10CreateTestEv
FNDA:1,_ZN7testing8internal15TestFactoryImplIN3s2142GraphAlgorithmsTest_ShortestPathCase1_TestEE10CreateTestEv
FN:474,_ZN7testing8internal15TestFactoryImplIN3s2142GraphAlgorithmsTest_ShortestPathCase2_TestEE10CreateTestEv
FNDA:1,_ZN7testing8internal15TestFactoryImplIN3s2142GraphAlgorithmsTest_ShortestPathCase2_TestEE10CreateTestEv
FN:474,_ZN7testing8internal15TestFactoryImplIN3s2142GraphAlgorithmsTest_ShortestPathCase3_TestEE10CreateTestEv
FNDA:1,_ZN7testing8internal15TestFactoryImplIN3s2142GraphAlgorithmsTest_ShortestPathCase3_TestEE10CreateTestEv
FN:474,_ZN7testing8internal15TestFactoryImplIN3s2142GraphAlgorithmsTest_ShortestPathCase4_TestEE10CreateTestEv
FNDA:1,_ZN7testing8internal15TestFactoryImplIN3s2142GraphAlgorithmsTest_ShortestPathCase4_TestEE10CreateTestEv
FN:474,_ZN7testing8internal15TestFactoryImplIN3s2140GraphAlgorithmsTest_InvalidVertices_TestEE10CreateTestEv
FNDA:1,_ZN7testing8internal15TestFactoryImplIN3s2140GraphAlgorithmsTest_InvalidVertices_TestEE10CreateTestEv
FN:474,_ZN7testing8internal15TestFactoryImplIN3s2141GraphAlgorithmsTest_InvalidVertices1_TestEE10CreateTestEv
FNDA:1,_ZN7testing8internal15TestFactoryImplIN3s2141GraphAlgorithmsTest_InvalidVertices1_TestEE10CreateTestEv
FN:474,_ZN7testing8internal15TestFactoryImplIN3s2142GraphAlgorithmsTest_ShortestPathCase5_TestEE10CreateTestEv
FNDA:1,_ZN7testing8internal15TestFactoryImplIN3s2142GraphAlgorithmsTest_ShortestPathCase5_TestEE10CreateTestEv
FN:474,_ZN7testing8internal15TestFactoryImplIN3s2128Graph_getAjacencyMatrix_TestEE10CreateTestEv
FNDA:1,_ZN7testing8internal15TestFactoryImplIN3s2128Graph_getAjacencyMatrix_TestEE10CreateTestEv
FN:474,_ZN7testing8internal15TestFactoryImplIN3s2142GraphAlgorithmsTest_ShortestPathCase7_TestEE10CreateTestEv
FNDA:1,_ZN7testing8internal15TestFactoryImplIN3s2142GraphAlgorithmsTest_ShortestPathCase7_TestEE10CreateTestEv
FN:474,_ZN7testing8internal15TestFactoryImplIN3s2142GraphAlgorithmsTest_ShortestPathCase8_TestEE10CreateTestEv
FNDA:1,_ZN7testing8internal15TestFactoryImplIN3s2142GraphAlgorithmsTest_ShortestPathCase8_TestEE10CreateTestEv
FN:474,_ZN7testing8internal15TestFactoryImplIN3s2154Test_FloidWarshall_weighted_directed_graph_4_vert_TestEE10CreateTestEv
FNDA:1,_ZN7testing8internal15TestFactoryImplIN3s2154Test_FloidWarshall_weighted_directed_graph_4_vert_TestEE10CreateTestEv
FN:474,_ZN7testing8internal15TestFactoryImplIN3s2153GraphAlgorithmsTest_FloidWarshall_very_big_graph_TestEE10CreateTestEv
FNDA:1,_ZN7testing8internal15TestFactoryImplIN3s2153GraphAlgorithmsTest_FloidWarshall_very_big_graph_TestEE10CreateTestEv
FN:474,_ZN7testing8internal15TestFactoryImplIN3s2159GraphAlgorithmsTest_FloidWarshall_graph_21_vert_direct_TestEE10CreateTestEv
FNDA:1,_ZN7testing8internal15TestFactoryImplIN3s2159GraphAlgorithmsTest_FloidWarshall_graph_21_vert_direct_TestEE10CreateTestEv
FN:474,_ZN7testing8internal15TestFactoryImplIN3s2169GraphAlgorithmsTest_FloidWarshall_weighted_directed_graph_8_vert_TestEE10CreateTestEv
FNDA:1,_ZN7testing8internal15TestFactoryImplIN3s2169GraphAlgorithmsTest_FloidWarshall_weighted_directed_graph_8_vert_TestEE10CreateTestEv
FN:474,_ZN7testing8internal15TestFactoryImplIN3s2169GraphAlgorithmsTest_FloidWarshall_weighted_directed_graph_3_vert_TestEE10CreateTestEv
FNDA:1,_ZN7testing8internal15TestFactoryImplIN3s2169GraphAlgorithmsTest_FloidWarshall_weighted_directed_graph_3_vert_TestEE10CreateTestEv
FN:474,_ZN7testing8internal15TestFactoryImplIN3s2142GraphAlgorithmsTest_ShortestPathCase9_TestEE10CreateTestEv
FNDA:1,_ZN7testing8internal15TestFactoryImplIN3s2142GraphAlgorithmsTest_ShortestPathCase9_TestEE10CreateTestEv
FN:474,_ZN7testing8internal15TestFactoryImplIN3s2148GraphAlgorithmsTest_test_DFS_very_big_graph_TestEE10CreateTestEv
FNDA:1,_ZN7testing8internal15TestFactoryImplIN3s2148GraphAlgorithmsTest_test_DFS_very_big_graph_TestEE10CreateTestEv
FN:474,_ZN7testing8internal15TestFactoryImplIN3s2174GraphAlgorithmsTest_test_DFS_weighted_directed_graph_8_check_all_vert_TestEE10CreateTestEv
FNDA:1,_ZN7testing8internal15TestFactoryImplIN3s2174GraphAlgorithmsTest_test_DFS_weighted_directed_graph_8_check_all_vert_TestEE10CreateTestEv
FN:474,_ZN7testing8internal15TestFactoryImplIN3s2162GraphAlgorithmsTest_test_DFS_weighted_graph_9_check_verts_TestEE10CreateTestEv
FNDA:1,_ZN7testing8internal15TestFactoryImplIN3s2162GraphAlgorithmsTest_test_DFS_weighted_graph_9_check_verts_TestEE10CreateTestEv
FN:474,_ZN7testing8internal15TestFactoryImplIN3s2167GraphAlgorithmsTest_test_DFS_directed_graph_21_check_big_graph_TestEE10CreateTestEv
FNDA:1,_ZN7testing8internal15TestFactoryImplIN3s2167GraphAlgorithmsTest_test_DFS_directed_graph_21_check_big_graph_TestEE10CreateTestEv
FN:474,_ZN7testing8internal15TestFactoryImplIN3s2171GraphAlgorithmsTest_test_DFS_directed_graph_8_check_directed_verts_TestEE10CreateTestEv
FNDA:1,_ZN7testing8internal15TestFactoryImplIN3s2171GraphAlgorithmsTest_test_DFS_directed_graph_8_check_directed_verts_TestEE10CreateTestEv
FN:474,_ZN7testing8internal15TestFactoryImplIN3s2170GraphAlgorithmsTest_test_DFS_simple_graph_13_check_vers_and_throw_TestEE10CreateTestEv
FNDA:1,_ZN7testing8internal15TestFactoryImplIN3s2170GraphAlgorithmsTest_test_DFS_simple_graph_13_check_vers_and_throw_TestEE10CreateTestEv
FN:474,_ZN7testing8internal15TestFactoryImplIN3s2173GraphAlgorithmsTest_test_DFS_simple_graph_3_check_all_vert_and_throw_TestEE10CreateTestEv
FNDA:1,_ZN7testing8internal15TestFactoryImplIN3s2173GraphAlgorithmsTest_test_DFS_simple_graph_3_check_all_vert_and_throw_TestEE10CreateTestEv
FN:474,_ZN7testing8internal15TestFactoryImplIN3s2137GraphAlgorithmsTest_VeryBigGraph_TestEE10CreateTestEv
FNDA:1,_ZN7testing8internal15TestFactoryImplIN3s2137GraphAlgorithmsTest_VeryBigGraph_TestEE10CreateTestEv
FN:474,_ZN7testing8internal15TestFactoryImplIN3s2141GraphAlgorithmsTest_InvalidVertices3_TestEE10CreateTestEv
FNDA:1,_ZN7testing8internal15TestFactoryImplIN3s2141GraphAlgorithmsTest_InvalidVertices3_TestEE10CreateTestEv
FN:474,_ZN7testing8internal15TestFactoryImplIN3s2143GraphAlgorithmsTest_ShortestPathCase10_TestEE10CreateTestEv
FNDA:1,_ZN7testing8internal15TestFactoryImplIN3s2143GraphAlgorithmsTest_ShortestPathCase10_TestEE10CreateTestEv
FN:495,_ZN7testing8internal12CodeLocationC1ERKNSt7__cxx1112basic_stringIcSt11char_traitsIcESaIcEEEi
FNDA:63,_ZN7testing8internal12CodeLocationC1ERKNSt7__cxx1112basic_stringIcSt11char_traitsIcESaIcEEEi
FN:508,_ZN7testing8internal19GetNotDefaultOrNullEPFvvES2_
FNDA:252,_ZN7testing8internal19GetNotDefaultOrNullEPFvvES2_
FN:523,_ZN7testing8internal16SuiteApiResolverINS_4TestEE19GetSetUpCaseOrSuiteEPKci
FNDA:63,_ZN7testing8internal16SuiteApiResolverINS_4TestEE19GetSetUpCaseOrSuiteEPKci
FN:544,_ZN7testing8internal16SuiteApiResolverINS_4TestEE22GetTearDownCaseOrSuiteEPKci
FNDA:63,_ZN7testing8internal16SuiteApiResolverINS_4TestEE22GetTearDownCaseOrSuiteEPKci
FN:860,_ZN7testing8internal14TrueWithStringC1Ev
FNDA:4,_ZN7testing8internal14TrueWithStringC1Ev
FN:863,_ZNK7testing8internal14TrueWithStringcvbEv
FNDA:4,_ZNK7testing8internal14TrueWithStringcvbEv
FN:1377,_ZNK7testing8internal11NeverThrown4whatEv
FNDA:0,_ZNK7testing8internal11NeverThrown4whatEv
FNF:72
FNH:69
DA:456,0
DA:463,0
DA:474,1
DA:474,1
DA:474,1
DA:474,1
DA:474,1
DA:474,1
DA:474,1
DA:474,1
DA:474,1
DA:474,1
DA:474,1
DA:474,1
DA:474,1
DA:474,1
DA:474,1
DA:474,1
DA:474,1
DA:474,1
DA:474,1
DA:474,1
DA:474,1
DA:474,1
DA:474,1
DA:474,1
DA:474,1
DA:474,1
DA:474,1
DA:474,1
DA:474,1
DA:474,1
DA:474,1
DA:474,1
DA:474,1
DA:474,1
DA:474,1
DA:474,1
DA:474,1
DA:474,1
DA:474,1
DA:474,1
DA:474,1
DA:474,1
DA:474,1
DA:474,1
DA:474,1
DA:474,1
DA:474,1
DA:474,1
DA:474,1
DA:474,1
DA:474,1
DA:474,1
DA:474,1
DA:474,1
DA:474,1
DA:474,1
DA:474,1
DA:474,1
DA:474,1
DA:474,1
DA:474,1
DA:474,1
DA:474,1
DA:495,63
DA:496,63
DA:508,252
DA:510,252
DA:523,63
DA:527,63
DA:529,63
DA:531,63
DA:534,0
DA:536,63
DA:544,63
DA:548,63
DA:550,63
DA:552,63
DA:555,0
DA:557,63
DA:860,4
DA:863,4
DA:1377,0
DA:1378,0
LF:85
LH:79
end_of_record
SF:/usr/local/include/c++/10.3.0/bits/stl_construct.h
FN:108,_ZSt10_ConstructISt6vectorIiSaIiEEJS2_EEvPT_DpOT0_
FNDA:0,_ZSt10_ConstructISt6vectorIiSaIiEEJS2_EEvPT_DpOT0_
FN:108,_ZSt10_ConstructISt6vectorIiSaIiEEJEEvPT_DpOT0_
FNDA:455,_ZSt10_ConstructISt6vectorIiSaIiEEJEEvPT_DpOT0_
FN:108,_ZSt10_ConstructISt4pairIiiEJRKS1_EEvPT_DpOT0_
FNDA:12,_ZSt10_ConstructISt4pairIiiEJRKS1_EEvPT_DpOT0_
FN:108,_ZSt10_ConstructISt6vectorIdSaIdEEJRKS2_EEvPT_DpOT0_
FNDA:2740015,_ZSt10_ConstructISt6vectorIdSaIdEEJRKS2_EEvPT_DpOT0_
FN:108,_ZSt10_ConstructISt6vectorIiSaIiEEJRS2_EEvPT_DpOT0_
FNDA:0,_ZSt10_ConstructISt6vectorIiSaIiEEJRS2_EEvPT_DpOT0_
FN:108,_ZSt10_ConstructISt6vectorIiSaIiEEJRKS2_EEvPT_DpOT0_
FNDA:3650464,_ZSt10_ConstructISt6vectorIiSaIiEEJRKS2_EEvPT_DpOT0_
FN:135,_ZSt8_DestroyISt6vectorIdSaIdEEEvPT_
FNDA:2740015,_ZSt8_DestroyISt6vectorIdSaIdEEEvPT_
FN:135,_ZSt8_DestroyISt6vectorIiSaIiEEEvPT_
FNDA:3651586,_ZSt8_DestroyISt6vectorIiSaIiEEEvPT_
FN:149,_ZNSt12_Destroy_auxILb0EE9__destroyIPSt6vectorIiSaIiEEEEvT_S6_
FNDA:420599,_ZNSt12_Destroy_auxILb0EE9__destroyIPSt6vectorIiSaIiEEEEvT_S6_
FN:149,_ZNSt12_Destroy_auxILb0EE9__destroyIN9__gnu_cxx17__normal_iteratorIPSt6vectorIiSaIiEES4_IS6_SaIS6_EEEEEEvT_SB_
FNDA:40000,_ZNSt12_Destroy_auxILb0EE9__destroyIN9__gnu_cxx17__normal_iteratorIPSt6vectorIiSaIiEES4_IS6_SaIS6_EEEEEEvT_SB_
FN:149,_ZNSt12_Destroy_auxILb0EE9__destroyIPSt6vectorIdSaIdEEEEvT_S6_
FNDA:0,_ZNSt12_Destroy_auxILb0EE9__destroyIPSt6vectorIdSaIdEEEEvT_S6_
FN:161,_ZNSt12_Destroy_auxILb1EE9__destroyIN9__gnu_cxx17__normal_iteratorIPiSt6vectorIiSaIiEEEEEEvT_S9_
FNDA:300000,_ZNSt12_Destroy_auxILb1EE9__destroyIN9__gnu_cxx17__normal_iteratorIPiSt6vectorIiSaIiEEEEEEvT_S9_
FN:161,_ZNSt12_Destroy_auxILb1EE9__destroyIPSt4pairIiiEEEvT_S5_
FNDA:81,_ZNSt12_Destroy_auxILb1EE9__destroyIPSt4pairIiiEEEvT_S5_
FN:161,_ZNSt12_Destroy_auxILb1EE9__destroyIPiEEvT_S3_
FNDA:0,_ZNSt12_Destroy_auxILb1EE9__destroyIPiEEvT_S3_
FN:161,_ZNSt12_Destroy_auxILb1EE9__destroyIPdEEvT_S3_
FNDA:0,_ZNSt12_Destroy_auxILb1EE9__destroyIPdEEvT_S3_
FN:171,_ZSt8_DestroyIPSt6vectorIiSaIiEEEvT_S4_
FNDA:420599,_ZSt8_DestroyIPSt6vectorIiSaIiEEEvT_S4_
FN:171,_ZSt8_DestroyIPSt4pairIiiEEvT_S3_
FNDA:81,_ZSt8_DestroyIPSt4pairIiiEEvT_S3_
FN:171,_ZSt8_DestroyIPiEvT_S1_
FNDA:3736511,_ZSt8_DestroyIPiEvT_S1_
FN:171,_ZSt8_DestroyIPdEvT_S1_
FNDA:0,_ZSt8_DestroyIPdEvT_S1_
FN:171,_ZSt8_DestroyIPSt6vectorIdSaIdEEEvT_S4_
FNDA:0,_ZSt8_DestroyIPSt6vectorIdSaIdEEEvT_S4_
FN:171,_ZSt8_DestroyIN9__gnu_cxx17__normal_iteratorIPSt6vectorIiSaIiEES2_IS4_SaIS4_EEEEEvT_S9_
FNDA:40000,_ZSt8_DestroyIN9__gnu_cxx17__normal_iteratorIPSt6vectorIiSaIiEES2_IS4_SaIS4_EEEEEvT_S9_
FN:171,_ZSt8_DestroyIN9__gnu_cxx17__normal_iteratorIPiSt6vectorIiSaIiEEEEEvT_S7_
FNDA:300000,_ZSt8_DestroyIN9__gnu_cxx17__normal_iteratorIPiSt6vectorIiSaIiEEEEEvT_S7_
FNF:22
FNH:15
DA:108,0
DA:109,0
DA:108,455
DA:109,455
DA:108,12
DA:109,12
DA:108,2740015
DA:109,2740015
DA:108,0
DA:109,0
DA:108,3650464
DA:109,3650464
DA:135,2740015
DA:140,2740015
DA:142,2740015
DA:135,3651586
DA:140,3651586
DA:142,3651586
DA:149,40000
DA:151,40000
DA:152,0
DA:153,40000
DA:149,0
DA:151,0
DA:152,0
DA:153,0
DA:149,4072185
DA:151,4072185
DA:152,3651586
DA:153,420599
DA:161,300000
DA:161,0
DA:161,0
DA:161,81
DA:171,300000
DA:185,300000
DA:186,300000
DA:171,40000
DA:185,40000
DA:186,40000
DA:171,0
DA:185,0
DA:186,0
DA:171,0
DA:185,0
DA:186,0
DA:171,3736511
DA:185,3736511
DA:186,3736511
DA:171,81
DA:185,81
DA:186,81
DA:171,420599
DA:185,420599
DA:186,420599
LF:55
LH:38
end_of_record
SF:/usr/local/include/c++/10.3.0/iostream
LF:0
LH:0
end_of_record
SF:/usr/local/include/c++/10.3.0/bits/stl_stack.h
FN:162,_ZNSt5stackIiSt5dequeIiSaIiEEEC1IS2_vEEv
FNDA:8,_ZNSt5stackIiSt5dequeIiSaIiEEEC1IS2_vEEv
FN:199,_ZNKSt5stackIiSt5dequeIiSaIiEEE5emptyEv
FNDA:76,_ZNKSt5stackIiSt5dequeIiSaIiEEE5emptyEv
FN:212,_ZNSt5stackIiSt5dequeIiSaIiEEE3topEv
FNDA:68,_ZNSt5stackIiSt5dequeIiSaIiEEE3topEv
FN:239,_ZNSt5stackIiSt5dequeIiSaIiEEE4pushERKi
FNDA:68,_ZNSt5stackIiSt5dequeIiSaIiEEE4pushERKi
FN:272,_ZNSt5stackIiSt5dequeIiSaIiEEE3popEv
FNDA:68,_ZNSt5stackIiSt5dequeIiSaIiEEE3popEv
FNF:5
FNH:5
DA:162,8
DA:163,8
DA:199,76
DA:200,76
DA:212,68
DA:215,68
DA:239,68
DA:240,68
DA:272,68
DA:275,68
DA:276,68
LF:11
LH:11
end_of_record
SF:/usr/local/include/c++/10.3.0/bits/stl_uninitialized.h
FN:84,_ZNSt20__uninitialized_copyILb0EE13__uninit_copyIN9__gnu_cxx17__normal_iteratorIPKSt4pairIiiESt6vectorIS5_SaIS5_EEEEPS5_EET0_T_SE_SD_
FNDA:1,_ZNSt20__uninitialized_copyILb0EE13__uninit_copyIN9__gnu_cxx17__normal_iteratorIPKSt4pairIiiESt6vectorIS5_SaIS5_EEEEPS5_EET0_T_SE_SD_
FN:84,_ZNSt20__uninitialized_copyILb0EE13__uninit_copyIPKSt6vectorIiSaIiEEPS4_EET0_T_S9_S8_
FNDA:11,_ZNSt20__uninitialized_copyILb0EE13__uninit_copyIPKSt6vectorIiSaIiEEPS4_EET0_T_S9_S8_
FN:84,_ZNSt20__uninitialized_copyILb0EE13__uninit_copyIPKSt4pairIiiEPS3_EET0_T_S8_S7_
FNDA:1,_ZNSt20__uninitialized_copyILb0EE13__uninit_copyIPKSt4pairIiiEPS3_EET0_T_S8_S7_
FN:84,_ZNSt20__uninitialized_copyILb0EE13__uninit_copyIN9__gnu_cxx17__normal_iteratorIPKSt6vectorIdSaIdEES4_IS6_SaIS6_EEEEPS6_EET0_T_SE_SD_
FNDA:300000,_ZNSt20__uninitialized_copyILb0EE13__uninit_copyIN9__gnu_cxx17__normal_iteratorIPKSt6vectorIdSaIdEES4_IS6_SaIS6_EEEEPS6_EET0_T_SE_SD_
FN:84,_ZNSt20__uninitialized_copyILb0EE13__uninit_copyIPSt6vectorIiSaIiEES5_EET0_T_S7_S6_
FNDA:0,_ZNSt20__uninitialized_copyILb0EE13__uninit_copyIPSt6vectorIiSaIiEES5_EET0_T_S7_S6_
FN:84,_ZNSt20__uninitialized_copyILb0EE13__uninit_copyIN9__gnu_cxx17__normal_iteratorIPKSt6vectorIiSaIiEES4_IS6_SaIS6_EEEEPS6_EET0_T_SE_SD_
FNDA:380282,_ZNSt20__uninitialized_copyILb0EE13__uninit_copyIN9__gnu_cxx17__normal_iteratorIPKSt6vectorIiSaIiEES4_IS6_SaIS6_EEEEPS6_EET0_T_SE_SD_
FN:84,_ZNSt20__uninitialized_copyILb0EE13__uninit_copyISt13move_iteratorIPSt6vectorIiSaIiEEES6_EET0_T_S9_S8_
FNDA:110,_ZNSt20__uninitialized_copyILb0EE13__uninit_copyISt13move_iteratorIPSt6vectorIiSaIiEEES6_EET0_T_S9_S8_
FN:107,_ZNSt20__uninitialized_copyILb1EE13__uninit_copyIPiS2_EET0_T_S4_S3_
FNDA:0,_ZNSt20__uninitialized_copyILb1EE13__uninit_copyIPiS2_EET0_T_S4_S3_
FN:107,_ZNSt20__uninitialized_copyILb1EE13__uninit_copyIN9__gnu_cxx17__normal_iteratorIPKdSt6vectorIdSaIdEEEEPdEET0_T_SC_SB_
FNDA:3000015,_ZNSt20__uninitialized_copyILb1EE13__uninit_copyIN9__gnu_cxx17__normal_iteratorIPKdSt6vectorIdSaIdEEEEPdEET0_T_SC_SB_
FN:107,_ZNSt20__uninitialized_copyILb1EE13__uninit_copyIPKiPiEET0_T_S6_S5_
FNDA:203,_ZNSt20__uninitialized_copyILb1EE13__uninit_copyIPKiPiEET0_T_S6_S5_
FN:107,_ZNSt20__uninitialized_copyILb1EE13__uninit_copyIN9__gnu_cxx17__normal_iteratorIPKiSt6vectorIiSaIiEEEEPiEET0_T_SC_SB_
FNDA:3653459,_ZNSt20__uninitialized_copyILb1EE13__uninit_copyIN9__gnu_cxx17__normal_iteratorIPKiSt6vectorIiSaIiEEEEPiEET0_T_SC_SB_
FN:107,_ZNSt20__uninitialized_copyILb1EE13__uninit_copyISt13move_iteratorIN9__gnu_cxx17__normal_iteratorIPiSt6vectorIiSaIiEEEEES5_EET0_T_SC_SB_
FNDA:11,_ZNSt20__uninitialized_copyILb1EE13__uninit_copyISt13move_iteratorIN9__gnu_cxx17__normal_iteratorIPiSt6vectorIiSaIiEEEEES5_EET0_T_SC_SB_
FN:125,_ZSt18uninitialized_copyIN9__gnu_cxx17__normal_iteratorIPKSt4pairIiiESt6vectorIS3_SaIS3_EEEEPS3_ET0_T_SC_SB_
FNDA:1,_ZSt18uninitialized_copyIN9__gnu_cxx17__normal_iteratorIPKSt4pairIiiESt6vectorIS3_SaIS3_EEEEPS3_ET0_T_SC_SB_
FN:125,_ZSt18uninitialized_copyIN9__gnu_cxx17__normal_iteratorIPKdSt6vectorIdSaIdEEEEPdET0_T_SA_S9_
FNDA:3000015,_ZSt18uninitialized_copyIN9__gnu_cxx17__normal_iteratorIPKdSt6vectorIdSaIdEEEEPdET0_T_SA_S9_
FN:125,_ZSt18uninitialized_copyIN9__gnu_cxx17__normal_iteratorIPKSt6vectorIdSaIdEES2_IS4_SaIS4_EEEEPS4_ET0_T_SC_SB_
FNDA:300000,_ZSt18uninitialized_copyIN9__gnu_cxx17__normal_iteratorIPKSt6vectorIdSaIdEES2_IS4_SaIS4_EEEEPS4_ET0_T_SC_SB_
FN:125,_ZSt18uninitialized_copyIPSt6vectorIiSaIiEES3_ET0_T_S5_S4_
FNDA:0,_ZSt18uninitialized_copyIPSt6vectorIiSaIiEES3_ET0_T_S5_S4_
FN:125,_ZSt18uninitialized_copyIN9__gnu_cxx17__normal_iteratorIPKSt6vectorIiSaIiEES2_IS4_SaIS4_EEEEPS4_ET0_T_SC_SB_
FNDA:380282,_ZSt18uninitialized_copyIN9__gnu_cxx17__normal_iteratorIPKSt6vectorIiSaIiEES2_IS4_SaIS4_EEEEPS4_ET0_T_SC_SB_
FN:125,_ZSt18uninitialized_copyIN9__gnu_cxx17__normal_iteratorIPKiSt6vectorIiSaIiEEEEPiET0_T_SA_S9_
FNDA:3653459,_ZSt18uninitialized_copyIN9__gnu_cxx17__normal_iteratorIPKiSt6vectorIiSaIiEEEEPiET0_T_SA_S9_
FN:125,_ZSt18uninitialized_copyIPiS0_ET0_T_S2_S1_
FNDA:0,_ZSt18uninitialized_copyIPiS0_ET0_T_S2_S1_
FN:125,_ZSt18uninitialized_copyIPKiPiET0_T_S4_S3_
FNDA:203,_ZSt18uninitialized_copyIPKiPiET0_T_S4_S3_
FN:125,_ZSt18uninitialized_copyIPKSt6vectorIiSaIiEEPS2_ET0_T_S7_S6_
FNDA:11,_ZSt18uninitialized_copyIPKSt6vectorIiSaIiEEPS2_ET0_T_S7_S6_
FN:125,_ZSt18uninitialized_copyIPKSt4pairIiiEPS1_ET0_T_S6_S5_
FNDA:1,_ZSt18uninitialized_copyIPKSt4pairIiiEPS1_ET0_T_S6_S5_
FN:125,_ZSt18uninitialized_copyISt13move_iteratorIPSt6vectorIiSaIiEEES4_ET0_T_S7_S6_
FNDA:110,_ZSt18uninitialized_copyISt13move_iteratorIPSt6vectorIiSaIiEEES4_ET0_T_S7_S6_
FN:125,_ZSt18uninitialized_copyISt13move_iteratorIN9__gnu_cxx17__normal_iteratorIPiSt6vectorIiSaIiEEEEES3_ET0_T_SA_S9_
FNDA:11,_ZSt18uninitialized_copyISt13move_iteratorIN9__gnu_cxx17__normal_iteratorIPiSt6vectorIiSaIiEEEEES3_ET0_T_SA_S9_
FN:229,_ZNSt22__uninitialized_fill_nILb0EE15__uninit_fill_nIPSt6vectorIiSaIiEEmS4_EET_S6_T0_RKT1_
FNDA:40070,_ZNSt22__uninitialized_fill_nILb0EE15__uninit_fill_nIPSt6vectorIiSaIiEEmS4_EET_S6_T0_RKT1_
FN:229,_ZNSt22__uninitialized_fill_nILb0EE15__uninit_fill_nIPSt6vectorIdSaIdEEmS4_EET_S6_T0_RKT1_
FNDA:0,_ZNSt22__uninitialized_fill_nILb0EE15__uninit_fill_nIPSt6vectorIdSaIdEEmS4_EET_S6_T0_RKT1_
FN:252,_ZNSt22__uninitialized_fill_nILb1EE15__uninit_fill_nIPimiEET_S3_T0_RKT1_
FNDA:40031,_ZNSt22__uninitialized_fill_nILb1EE15__uninit_fill_nIPimiEET_S3_T0_RKT1_
FN:252,_ZNSt22__uninitialized_fill_nILb1EE15__uninit_fill_nIPdmdEET_S3_T0_RKT1_
FNDA:300002,_ZNSt22__uninitialized_fill_nILb1EE15__uninit_fill_nIPdmdEET_S3_T0_RKT1_
FN:272,_ZSt20uninitialized_fill_nIPimiET_S1_T0_RKT1_
FNDA:40031,_ZSt20uninitialized_fill_nIPimiET_S1_T0_RKT1_
FN:272,_ZSt20uninitialized_fill_nIPSt6vectorIiSaIiEEmS2_ET_S4_T0_RKT1_
FNDA:40070,_ZSt20uninitialized_fill_nIPSt6vectorIiSaIiEEmS2_ET_S4_T0_RKT1_
FN:272,_ZSt20uninitialized_fill_nIPdmdET_S1_T0_RKT1_
FNDA:300002,_ZSt20uninitialized_fill_nIPdmdET_S1_T0_RKT1_
FN:272,_ZSt20uninitialized_fill_nIPSt6vectorIdSaIdEEmS2_ET_S4_T0_RKT1_
FNDA:2,_ZSt20uninitialized_fill_nIPSt6vectorIdSaIdEEmS2_ET_S4_T0_RKT1_
FN:323,_ZSt22__uninitialized_copy_aIPKSt6vectorIiSaIiEEPS2_S2_ET0_T_S7_S6_RSaIT1_E
FNDA:11,_ZSt22__uninitialized_copy_aIPKSt6vectorIiSaIiEEPS2_S2_ET0_T_S7_S6_RSaIT1_E
FN:323,_ZSt22__uninitialized_copy_aIN9__gnu_cxx17__normal_iteratorIPKiSt6vectorIiSaIiEEEEPiiET0_T_SA_S9_RSaIT1_E
FNDA:3653459,_ZSt22__uninitialized_copy_aIN9__gnu_cxx17__normal_iteratorIPKiSt6vectorIiSaIiEEEEPiiET0_T_SA_S9_RSaIT1_E
FN:323,_ZSt22__uninitialized_copy_aIPKiPiiET0_T_S4_S3_RSaIT1_E
FNDA:203,_ZSt22__uninitialized_copy_aIPKiPiiET0_T_S4_S3_RSaIT1_E
FN:323,_ZSt22__uninitialized_copy_aIPiS0_iET0_T_S2_S1_RSaIT1_E
FNDA:0,_ZSt22__uninitialized_copy_aIPiS0_iET0_T_S2_S1_RSaIT1_E
FN:323,_ZSt22__uninitialized_copy_aIN9__gnu_cxx17__normal_iteratorIPKSt4pairIiiESt6vectorIS3_SaIS3_EEEEPS3_S3_ET0_T_SC_SB_RSaIT1_E
FNDA:1,_ZSt22__uninitialized_copy_aIN9__gnu_cxx17__normal_iteratorIPKSt4pairIiiESt6vectorIS3_SaIS3_EEEEPS3_S3_ET0_T_SC_SB_RSaIT1_E
FN:323,_ZSt22__uninitialized_copy_aIN9__gnu_cxx17__normal_iteratorIPKdSt6vectorIdSaIdEEEEPddET0_T_SA_S9_RSaIT1_E
FNDA:3000015,_ZSt22__uninitialized_copy_aIN9__gnu_cxx17__normal_iteratorIPKdSt6vectorIdSaIdEEEEPddET0_T_SA_S9_RSaIT1_E
FN:323,_ZSt22__uninitialized_copy_aIN9__gnu_cxx17__normal_iteratorIPKSt6vectorIdSaIdEES2_IS4_SaIS4_EEEEPS4_S4_ET0_T_SC_SB_RSaIT1_E
FNDA:300000,_ZSt22__uninitialized_copy_aIN9__gnu_cxx17__normal_iteratorIPKSt6vectorIdSaIdEES2_IS4_SaIS4_EEEEPS4_S4_ET0_T_SC_SB_RSaIT1_E
FN:323,_ZSt22__uninitialized_copy_aIPSt6vectorIiSaIiEES3_S2_ET0_T_S5_S4_RSaIT1_E
FNDA:0,_ZSt22__uninitialized_copy_aIPSt6vectorIiSaIiEES3_S2_ET0_T_S5_S4_RSaIT1_E
FN:323,_ZSt22__uninitialized_copy_aIN9__gnu_cxx17__normal_iteratorIPKSt6vectorIiSaIiEES2_IS4_SaIS4_EEEEPS4_S4_ET0_T_SC_SB_RSaIT1_E
FNDA:380282,_ZSt22__uninitialized_copy_aIN9__gnu_cxx17__normal_iteratorIPKSt6vectorIiSaIiEES2_IS4_SaIS4_EEEEPS4_S4_ET0_T_SC_SB_RSaIT1_E
FN:323,_ZSt22__uninitialized_copy_aIPKSt4pairIiiEPS1_S1_ET0_T_S6_S5_RSaIT1_E
FNDA:1,_ZSt22__uninitialized_copy_aIPKSt4pairIiiEPS1_S1_ET0_T_S6_S5_RSaIT1_E
FN:323,_ZSt22__uninitialized_copy_aISt13move_iteratorIPSt6vectorIiSaIiEEES4_S3_ET0_T_S7_S6_RSaIT1_E
FNDA:110,_ZSt22__uninitialized_copy_aISt13move_iteratorIPSt6vectorIiSaIiEEES4_S3_ET0_T_S7_S6_RSaIT1_E
FN:323,_ZSt22__uninitialized_copy_aISt13move_iteratorIN9__gnu_cxx17__normal_iteratorIPiSt6vectorIiSaIiEEEEES3_iET0_T_SA_S9_RSaIT1_E
FNDA:11,_ZSt22__uninitialized_copy_aISt13move_iteratorIN9__gnu_cxx17__normal_iteratorIPiSt6vectorIiSaIiEEEEES3_iET0_T_SA_S9_RSaIT1_E
FN:330,_ZSt22__uninitialized_move_aIPSt6vectorIiSaIiEES3_SaIS2_EET0_T_S6_S5_RT1_
FNDA:0,_ZSt22__uninitialized_move_aIPSt6vectorIiSaIiEES3_SaIS2_EET0_T_S6_S5_RT1_
FN:341,_ZSt34__uninitialized_move_if_noexcept_aIPSt6vectorIiSaIiEES3_SaIS2_EET0_T_S6_S5_RT1_
FNDA:110,_ZSt34__uninitialized_move_if_noexcept_aIPSt6vectorIiSaIiEES3_SaIS2_EET0_T_S6_S5_RT1_
FN:400,_ZSt24__uninitialized_fill_n_aIPdmddET_S1_T0_RKT1_RSaIT2_E
FNDA:300002,_ZSt24__uninitialized_fill_n_aIPdmddET_S1_T0_RKT1_RSaIT2_E
FN:400,_ZSt24__uninitialized_fill_n_aIPimiiET_S1_T0_RKT1_RSaIT2_E
FNDA:40031,_ZSt24__uninitialized_fill_n_aIPimiiET_S1_T0_RKT1_RSaIT2_E
FN:400,_ZSt24__uninitialized_fill_n_aIPSt6vectorIiSaIiEEmS2_S2_ET_S4_T0_RKT1_RSaIT2_E
FNDA:40070,_ZSt24__uninitialized_fill_n_aIPSt6vectorIiSaIiEEmS2_S2_ET_S4_T0_RKT1_RSaIT2_E
FN:400,_ZSt24__uninitialized_fill_n_aIPSt6vectorIdSaIdEEmS2_S2_ET_S4_T0_RKT1_RSaIT2_E
FNDA:2,_ZSt24__uninitialized_fill_n_aIPSt6vectorIdSaIdEEmS2_S2_ET_S4_T0_RKT1_RSaIT2_E
FN:561,_ZNSt27__uninitialized_default_n_1ILb0EE18__uninit_default_nIPSt6vectorIiSaIiEEmEET_S6_T0_
FNDA:42,_ZNSt27__uninitialized_default_n_1ILb0EE18__uninit_default_nIPSt6vectorIiSaIiEEmEET_S6_T0_
FN:583,_ZNSt27__uninitialized_default_n_1ILb1EE18__uninit_default_nIPimEET_S3_T0_
FNDA:58,_ZNSt27__uninitialized_default_n_1ILb1EE18__uninit_default_nIPimEET_S3_T0_
FN:614,_ZSt25__uninitialized_default_nIPSt6vectorIiSaIiEEmET_S4_T0_
FNDA:42,_ZSt25__uninitialized_default_nIPSt6vectorIiSaIiEEmET_S4_T0_
FN:614,_ZSt25__uninitialized_default_nIPimET_S1_T0_
FNDA:58,_ZSt25__uninitialized_default_nIPimET_S1_T0_
FN:683,_ZSt27__uninitialized_default_n_aIPSt6vectorIiSaIiEEmS2_ET_S4_T0_RSaIT1_E
FNDA:42,_ZSt27__uninitialized_default_n_aIPSt6vectorIiSaIiEEmS2_ET_S4_T0_RSaIT1_E
FN:683,_ZSt27__uninitialized_default_n_aIPimiET_S1_T0_RSaIT1_E
FNDA:58,_ZSt27__uninitialized_default_n_aIPimiET_S1_T0_RSaIT1_E
FN:968,_ZSt19__relocate_object_aISt4pairIiiES1_SaIS1_EEvPT_PT0_RT1_
FNDA:205,_ZSt19__relocate_object_aISt4pairIiiES1_SaIS1_EEvPT_PT0_RT1_
FN:968,_ZSt19__relocate_object_aISt6vectorIiSaIiEES2_SaIS2_EEvPT_PT0_RT1_
FNDA:814,_ZSt19__relocate_object_aISt6vectorIiSaIiEES2_SaIS2_EEvPT_PT0_RT1_
FN:988,_ZSt14__relocate_a_1IiiENSt9enable_ifIXsrSt24__is_bitwise_relocatableIT_vE5valueEPS2_E4typeES4_S4_S4_RSaIT0_E
FNDA:0,_ZSt14__relocate_a_1IiiENSt9enable_ifIXsrSt24__is_bitwise_relocatableIT_vE5valueEPS2_E4typeES4_S4_S4_RSaIT0_E
FN:1000,_ZSt14__relocate_a_1IPSt6vectorIiSaIiEES3_SaIS2_EET0_T_S6_S5_RT1_
FNDA:498,_ZSt14__relocate_a_1IPSt6vectorIiSaIiEES3_SaIS2_EET0_T_S6_S5_RT1_
FN:1000,_ZSt14__relocate_a_1IPSt4pairIiiES2_SaIS1_EET0_T_S5_S4_RT1_
FNDA:132,_ZSt14__relocate_a_1IPSt4pairIiiES2_SaIS1_EET0_T_S5_S4_RT1_
FN:1022,_ZSt12__relocate_aIPiS0_SaIiEET0_T_S3_S2_RT1_
FNDA:0,_ZSt12__relocate_aIPiS0_SaIiEET0_T_S3_S2_RT1_
FN:1022,_ZSt12__relocate_aIPSt4pairIiiES2_SaIS1_EET0_T_S5_S4_RT1_
FNDA:132,_ZSt12__relocate_aIPSt4pairIiiES2_SaIS1_EET0_T_S5_S4_RT1_
FN:1022,_ZSt12__relocate_aIPSt6vectorIiSaIiEES3_SaIS2_EET0_T_S6_S5_RT1_
FNDA:498,_ZSt12__relocate_aIPSt6vectorIiSaIiEES3_SaIS2_EET0_T_S6_S5_RT1_
FNF:64
FNH:54
DA:84,110
DA:87,110
DA:90,110
DA:91,0
DA:92,110
DA:94,0
DA:96,0
DA:97,0
DA:84,1
DA:87,1
DA:90,7
DA:91,6
DA:92,1
DA:84,11
DA:87,11
DA:90,179
DA:91,168
DA:92,11
DA:94,0
DA:96,0
DA:97,0
DA:84,1
DA:87,1
DA:90,7
DA:91,6
DA:92,1
DA:84,300000
DA:87,300000
DA:90,3040000
DA:91,2740000
DA:92,300000
DA:94,0
DA:96,0
DA:97,0
DA:84,0
DA:87,0
DA:90,0
DA:91,0
DA:92,0
DA:94,0
DA:96,0
DA:97,0
DA:84,380282
DA:87,380282
DA:90,3729697
DA:91,3349415
DA:92,380282
DA:94,0
DA:96,0
DA:97,0
DA:107,0
DA:109,0
DA:107,11
DA:109,11
DA:107,203
DA:109,203
DA:107,3000015
DA:109,3000015
DA:107,3653459
DA:109,3653459
DA:125,0
DA:144,0
DA:150,0
DA:125,11
DA:144,11
DA:150,11
DA:125,110
DA:144,110
DA:150,110
DA:125,1
DA:144,1
DA:150,1
DA:125,11
DA:144,11
DA:150,11
DA:125,203
DA:144,203
DA:150,203
DA:125,1
DA:144,1
DA:150,1
DA:125,3000015
DA:144,3000015
DA:150,3000015
DA:125,300000
DA:144,300000
DA:150,300000
DA:125,0
DA:144,0
DA:150,0
DA:125,380282
DA:144,380282
DA:150,380282
DA:125,3653459
DA:144,3653459
DA:150,3653459
DA:229,0
DA:232,0
DA:235,0
DA:236,0
DA:237,0
DA:239,0
DA:241,0
DA:242,0
DA:229,40070
DA:232,40070
DA:235,340951
DA:236,300881
DA:237,40070
DA:239,0
DA:241,0
DA:242,0
DA:252,300002
DA:254,300002
DA:252,40031
DA:254,40031
DA:272,2
DA:286,2
DA:289,2
DA:272,300002
DA:286,300002
DA:289,300002
DA:272,40070
DA:286,40070
DA:289,40070
DA:272,40031
DA:286,40031
DA:289,40031
DA:323,0
DA:325,0
DA:323,11
DA:325,11
DA:323,110
DA:325,110
DA:323,1
DA:325,1
DA:323,11
DA:325,11
DA:323,203
DA:325,203
DA:323,1
DA:325,1
DA:323,3000015
DA:325,3000015
DA:323,300000
DA:325,300000
DA:323,0
DA:325,0
DA:323,380282
DA:325,380282
DA:323,3653459
DA:325,3653459
DA:330,0
DA:333,0
DA:335,0
DA:341,110
DA:347,110
DA:348,110
DA:400,2
DA:402,2
DA:400,300002
DA:402,300002
DA:400,40070
DA:402,40070
DA:400,40031
DA:402,40031
DA:561,42
DA:563,42
DA:566,497
DA:567,455
DA:568,42
DA:583,58
DA:588,58
DA:614,58
DA:619,58
DA:623,58
DA:614,42
DA:619,42
DA:623,42
DA:683,58
DA:685,58
DA:683,42
DA:685,42
DA:968,814
DA:976,814
DA:977,814
DA:978,814
DA:968,205
DA:976,205
DA:977,205
DA:978,205
DA:988,0
DA:991,0
DA:992,0
DA:993,0
DA:994,0
DA:1000,498
DA:1012,498
DA:1013,1312
DA:1014,814
DA:1016,498
DA:1000,132
DA:1012,132
DA:1013,337
DA:1014,205
DA:1016,132
DA:1022,498
DA:1028,498
DA:1030,498
DA:1022,132
DA:1028,132
DA:1030,132
DA:1022,0
DA:1028,0
DA:1030,0
LF:215
LH:160
end_of_record
SF:/Users/qylenett/Desktop/navigator/SimpleNavigator-v1.0/src/tests/graph_class_tests.cc
FN:5,_ZN3s2128Graph_getAjacencyMatrix_TestC1Ev
FNDA:1,_ZN3s2128Graph_getAjacencyMatrix_TestC1Ev
FN:5,_ZN3s2128Graph_getAjacencyMatrix_Test8TestBodyEv
FNDA:1,_ZN3s2128Graph_getAjacencyMatrix_Test8TestBodyEv
FN:5,_ZN3s2128Graph_getAjacencyMatrix_TestD1Ev
FNDA:1,_ZN3s2128Graph_getAjacencyMatrix_TestD1Ev
FN:5,_ZN3s2128Graph_getAjacencyMatrix_TestD0Ev
FNDA:1,_ZN3s2128Graph_getAjacencyMatrix_TestD0Ev
FN:14,_ZN3s2136GraphAlgorithmsTest_getEdgeList_TestC1Ev
FNDA:1,_ZN3s2136GraphAlgorithmsTest_getEdgeList_TestC1Ev
FN:14,_ZN3s2136GraphAlgorithmsTest_getEdgeList_Test8TestBodyEv
FNDA:1,_ZN3s2136GraphAlgorithmsTest_getEdgeList_Test8TestBodyEv
FN:14,_ZN3s2136GraphAlgorithmsTest_getEdgeList_TestD1Ev
FNDA:1,_ZN3s2136GraphAlgorithmsTest_getEdgeList_TestD1Ev
FN:14,_ZN3s2136GraphAlgorithmsTest_getEdgeList_TestD0Ev
FNDA:1,_ZN3s2136GraphAlgorithmsTest_getEdgeList_TestD0Ev
FN:25,_ZN3s2141GraphAlgorithmsTest_errorOpeningFile_TestD0Ev
FNDA:1,_ZN3s2141GraphAlgorithmsTest_errorOpeningFile_TestD0Ev
FN:25,_ZN3s2141GraphAlgorithmsTest_errorOpeningFile_TestC1Ev
FNDA:1,_ZN3s2141GraphAlgorithmsTest_errorOpeningFile_TestC1Ev
FN:25,_ZN3s2141GraphAlgorithmsTest_errorOpeningFile_TestD1Ev
FNDA:1,_ZN3s2141GraphAlgorithmsTest_errorOpeningFile_TestD1Ev
FN:25,_ZN3s2141GraphAlgorithmsTest_errorOpeningFile_Test8TestBodyEv
FNDA:1,_ZN3s2141GraphAlgorithmsTest_errorOpeningFile_Test8TestBodyEv
FN:33,_ZN3s2128GraphAlgorithmsTest_DOT_TestD1Ev
FNDA:1,_ZN3s2128GraphAlgorithmsTest_DOT_TestD1Ev
FN:33,_ZN3s2128GraphAlgorithmsTest_DOT_Test8TestBodyEv
FNDA:1,_ZN3s2128GraphAlgorithmsTest_DOT_Test8TestBodyEv
FN:33,_ZN3s2128GraphAlgorithmsTest_DOT_TestC1Ev
FNDA:1,_ZN3s2128GraphAlgorithmsTest_DOT_TestC1Ev
FN:33,_ZN3s2128GraphAlgorithmsTest_DOT_TestD0Ev
FNDA:1,_ZN3s2128GraphAlgorithmsTest_DOT_TestD0Ev
FN:42,_ZN3s2144GraphAlgorithmsTest_Graph_DOTerror_Test_Test8TestBodyEv
FNDA:1,_ZN3s2144GraphAlgorithmsTest_Graph_DOTerror_Test_Test8TestBodyEv
FN:42,_ZN3s2144GraphAlgorithmsTest_Graph_DOTerror_Test_TestC1Ev
FNDA:1,_ZN3s2144GraphAlgorithmsTest_Graph_DOTerror_Test_TestC1Ev
FN:42,_ZN3s2144GraphAlgorithmsTest_Graph_DOTerror_Test_TestD1Ev
FNDA:1,_ZN3s2144GraphAlgorithmsTest_Graph_DOTerror_Test_TestD1Ev
FN:42,_ZN3s2144GraphAlgorithmsTest_Graph_DOTerror_Test_TestD0Ev
FNDA:1,_ZN3s2144GraphAlgorithmsTest_Graph_DOTerror_Test_TestD0Ev
FN:51,_ZN3s2158GraphAlgorithmsTest_ExportGraphToDot_ErrorOpeningFile_Test8TestBodyEv
FNDA:1,_ZN3s2158GraphAlgorithmsTest_ExportGraphToDot_ErrorOpeningFile_Test8TestBodyEv
FN:51,_ZN3s2158GraphAlgorithmsTest_ExportGraphToDot_ErrorOpeningFile_TestC1Ev
FNDA:1,_ZN3s2158GraphAlgorithmsTest_ExportGraphToDot_ErrorOpeningFile_TestC1Ev
FN:51,_ZN3s2158GraphAlgorithmsTest_ExportGraphToDot_ErrorOpeningFile_TestD1Ev
FNDA:1,_ZN3s2158GraphAlgorithmsTest_ExportGraphToDot_ErrorOpeningFile_TestD1Ev
FN:51,_ZN3s2158GraphAlgorithmsTest_ExportGraphToDot_ErrorOpeningFile_TestD0Ev
FNDA:1,_ZN3s2158GraphAlgorithmsTest_ExportGraphToDot_ErrorOpeningFile_TestD0Ev
FN:59,_ZN3s2130Graph_Graph_DOTerror_Test_TestD0Ev
FNDA:1,_ZN3s2130Graph_Graph_DOTerror_Test_TestD0Ev
FN:59,_ZN3s2130Graph_Graph_DOTerror_Test_TestC1Ev
FNDA:1,_ZN3s2130Graph_Graph_DOTerror_Test_TestC1Ev
FN:59,_ZN3s2130Graph_Graph_DOTerror_Test_TestD1Ev
FNDA:1,_ZN3s2130Graph_Graph_DOTerror_Test_TestD1Ev
FN:59,_ZN3s2130Graph_Graph_DOTerror_Test_Test8TestBodyEv
FNDA:1,_ZN3s2130Graph_Graph_DOTerror_Test_Test8TestBodyEv
FN:68,_ZN3s2135GraphAlgorithmsTest_CheckFile1_TestC1Ev
FNDA:1,_ZN3s2135GraphAlgorithmsTest_CheckFile1_TestC1Ev
FN:68,_ZN3s2135GraphAlgorithmsTest_CheckFile1_TestD0Ev
FNDA:1,_ZN3s2135GraphAlgorithmsTest_CheckFile1_TestD0Ev
FN:68,_ZN3s2135GraphAlgorithmsTest_CheckFile1_TestD1Ev
FNDA:1,_ZN3s2135GraphAlgorithmsTest_CheckFile1_TestD1Ev
FN:68,_ZN3s2135GraphAlgorithmsTest_CheckFile1_Test8TestBodyEv
FNDA:1,_ZN3s2135GraphAlgorithmsTest_CheckFile1_Test8TestBodyEv
FN:81,_ZN3s2121Graph_CheckFile2_TestD0Ev
FNDA:1,_ZN3s2121Graph_CheckFile2_TestD0Ev
FN:81,_ZN3s2121Graph_CheckFile2_TestD1Ev
FNDA:1,_ZN3s2121Graph_CheckFile2_TestD1Ev
FN:81,_ZN3s2121Graph_CheckFile2_Test8TestBodyEv
FNDA:1,_ZN3s2121Graph_CheckFile2_Test8TestBodyEv
FN:81,_ZN3s2121Graph_CheckFile2_TestC1Ev
FNDA:1,_ZN3s2121Graph_CheckFile2_TestC1Ev
FN:91,_ZN3s2121Graph_CheckFile3_TestC1Ev
FNDA:1,_ZN3s2121Graph_CheckFile3_TestC1Ev
FN:91,_ZN3s2121Graph_CheckFile3_TestD0Ev
FNDA:1,_ZN3s2121Graph_CheckFile3_TestD0Ev
FN:91,_ZN3s2121Graph_CheckFile3_TestD1Ev
FNDA:1,_ZN3s2121Graph_CheckFile3_TestD1Ev
FN:91,_ZN3s2121Graph_CheckFile3_Test8TestBodyEv
FNDA:1,_ZN3s2121Graph_CheckFile3_Test8TestBodyEv
FN:100,_ZN3s2121Graph_CheckFile4_TestC1Ev
FNDA:1,_ZN3s2121Graph_CheckFile4_TestC1Ev
FN:100,_ZN3s2121Graph_CheckFile4_Test8TestBodyEv
FNDA:1,_ZN3s2121Graph_CheckFile4_Test8TestBodyEv
FN:100,_ZN3s2121Graph_CheckFile4_TestD0Ev
FNDA:1,_ZN3s2121Graph_CheckFile4_TestD0Ev
FN:100,_ZN3s2121Graph_CheckFile4_TestD1Ev
FNDA:1,_ZN3s2121Graph_CheckFile4_TestD1Ev
FN:110,_ZN3s2121Graph_CheckFile5_Test8TestBodyEv
FNDA:1,_ZN3s2121Graph_CheckFile5_Test8TestBodyEv
FN:110,_ZN3s2121Graph_CheckFile5_TestD0Ev
FNDA:1,_ZN3s2121Graph_CheckFile5_TestD0Ev
FN:110,_ZN3s2121Graph_CheckFile5_TestD1Ev
FNDA:1,_ZN3s2121Graph_CheckFile5_TestD1Ev
FN:110,_ZN3s2121Graph_CheckFile5_TestC1Ev
FNDA:1,_ZN3s2121Graph_CheckFile5_TestC1Ev
FN:117,_ZN3s2121Graph_CheckFile6_TestC1Ev
FNDA:1,_ZN3s2121Graph_CheckFile6_TestC1Ev
FN:117,_ZN3s2121Graph_CheckFile6_Test8TestBodyEv
FNDA:1,_ZN3s2121Graph_CheckFile6_Test8TestBodyEv
FN:117,_ZN3s2121Graph_CheckFile6_TestD0Ev
FNDA:1,_ZN3s2121Graph_CheckFile6_TestD0Ev
FN:117,_ZN3s2121Graph_CheckFile6_TestD1Ev
FNDA:1,_ZN3s2121Graph_CheckFile6_TestD1Ev
FN:124,_ZN3s2122Graph_CheckFile10_TestD1Ev
FNDA:1,_ZN3s2122Graph_CheckFile10_TestD1Ev
FN:124,_ZN3s2122Graph_CheckFile10_TestC1Ev
FNDA:1,_ZN3s2122Graph_CheckFile10_TestC1Ev
FN:124,_ZN3s2122Graph_CheckFile10_TestD0Ev
FNDA:1,_ZN3s2122Graph_CheckFile10_TestD0Ev
FN:124,_ZN3s2122Graph_CheckFile10_Test8TestBodyEv
FNDA:1,_ZN3s2122Graph_CheckFile10_Test8TestBodyEv
FN:134,_ZN3s2123Graph_DIM_NEGATIVE_Test8TestBodyEv
FNDA:1,_ZN3s2123Graph_DIM_NEGATIVE_Test8TestBodyEv
FN:134,_ZN3s2123Graph_DIM_NEGATIVE_TestC1Ev
FNDA:1,_ZN3s2123Graph_DIM_NEGATIVE_TestC1Ev
FN:134,_ZN3s2123Graph_DIM_NEGATIVE_TestD1Ev
FNDA:1,_ZN3s2123Graph_DIM_NEGATIVE_TestD1Ev
FN:134,_ZN3s2123Graph_DIM_NEGATIVE_TestD0Ev
FNDA:1,_ZN3s2123Graph_DIM_NEGATIVE_TestD0Ev
FN:141,_ZN3s2125Graph_DIM_NEGATIVE_2_TestD1Ev
FNDA:1,_ZN3s2125Graph_DIM_NEGATIVE_2_TestD1Ev
FN:141,_ZN3s2125Graph_DIM_NEGATIVE_2_Test8TestBodyEv
FNDA:1,_ZN3s2125Graph_DIM_NEGATIVE_2_Test8TestBodyEv
FN:141,_ZN3s2125Graph_DIM_NEGATIVE_2_TestC1Ev
FNDA:1,_ZN3s2125Graph_DIM_NEGATIVE_2_TestC1Ev
FN:141,_ZN3s2125Graph_DIM_NEGATIVE_2_TestD0Ev
FNDA:1,_ZN3s2125Graph_DIM_NEGATIVE_2_TestD0Ev
FN:148,_ZN3s2121Graph_FILE_EMPTY_TestD1Ev
FNDA:1,_ZN3s2121Graph_FILE_EMPTY_TestD1Ev
FN:148,_ZN3s2121Graph_FILE_EMPTY_TestD0Ev
FNDA:1,_ZN3s2121Graph_FILE_EMPTY_TestD0Ev
FN:148,_ZN3s2121Graph_FILE_EMPTY_Test8TestBodyEv
FNDA:1,_ZN3s2121Graph_FILE_EMPTY_Test8TestBodyEv
FN:148,_ZN3s2121Graph_FILE_EMPTY_TestC1Ev
FNDA:1,_ZN3s2121Graph_FILE_EMPTY_TestC1Ev
FN:155,_ZN3s2129Graph_Graph_connectivity_Test8TestBodyEv
FNDA:1,_ZN3s2129Graph_Graph_connectivity_Test8TestBodyEv
FN:155,_ZN3s2129Graph_Graph_connectivity_TestC1Ev
FNDA:1,_ZN3s2129Graph_Graph_connectivity_TestC1Ev
FN:155,_ZN3s2129Graph_Graph_connectivity_TestD1Ev
FNDA:1,_ZN3s2129Graph_Graph_connectivity_TestD1Ev
FN:155,_ZN3s2129Graph_Graph_connectivity_TestD0Ev
FNDA:1,_ZN3s2129Graph_Graph_connectivity_TestD0Ev
FN:165,_ZN3s2131Graph_Graph_connectivity_2_TestC1Ev
FNDA:1,_ZN3s2131Graph_Graph_connectivity_2_TestC1Ev
FN:165,_ZN3s2131Graph_Graph_connectivity_2_Test8TestBodyEv
FNDA:1,_ZN3s2131Graph_Graph_connectivity_2_Test8TestBodyEv
FN:165,_ZN3s2131Graph_Graph_connectivity_2_TestD1Ev
FNDA:1,_ZN3s2131Graph_Graph_connectivity_2_TestD1Ev
FN:165,_ZN3s2131Graph_Graph_connectivity_2_TestD0Ev
FNDA:1,_ZN3s2131Graph_Graph_connectivity_2_TestD0Ev
FN:174,_ZN3s2131Graph_Graph_connectivity_3_TestC1Ev
FNDA:1,_ZN3s2131Graph_Graph_connectivity_3_TestC1Ev
FN:174,_ZN3s2131Graph_Graph_connectivity_3_Test8TestBodyEv
FNDA:1,_ZN3s2131Graph_Graph_connectivity_3_Test8TestBodyEv
FN:174,_ZN3s2131Graph_Graph_connectivity_3_TestD1Ev
FNDA:1,_ZN3s2131Graph_Graph_connectivity_3_TestD1Ev
FN:174,_ZN3s2131Graph_Graph_connectivity_3_TestD0Ev
FNDA:1,_ZN3s2131Graph_Graph_connectivity_3_TestD0Ev
FN:184,_ZN3s2131Graph_Graph_connectivity_4_TestD1Ev
FNDA:1,_ZN3s2131Graph_Graph_connectivity_4_TestD1Ev
FN:184,_ZN3s2131Graph_Graph_connectivity_4_TestD0Ev
FNDA:1,_ZN3s2131Graph_Graph_connectivity_4_TestD0Ev
FN:184,_ZN3s2131Graph_Graph_connectivity_4_Test8TestBodyEv
FNDA:1,_ZN3s2131Graph_Graph_connectivity_4_Test8TestBodyEv
FN:184,_ZN3s2131Graph_Graph_connectivity_4_TestC1Ev
FNDA:1,_ZN3s2131Graph_Graph_connectivity_4_TestC1Ev
FN:194,_ZN3s2131Graph_Graph_connectivity_5_TestD0Ev
FNDA:1,_ZN3s2131Graph_Graph_connectivity_5_TestD0Ev
FN:194,_ZN3s2131Graph_Graph_connectivity_5_TestC1Ev
FNDA:1,_ZN3s2131Graph_Graph_connectivity_5_TestC1Ev
FN:194,_ZN3s2131Graph_Graph_connectivity_5_Test8TestBodyEv
FNDA:1,_ZN3s2131Graph_Graph_connectivity_5_Test8TestBodyEv
FN:194,_ZN3s2131Graph_Graph_connectivity_5_TestD1Ev
FNDA:1,_ZN3s2131Graph_Graph_connectivity_5_TestD1Ev
FN:203,_ZN3s2131Graph_Graph_connectivity_6_TestD0Ev
FNDA:1,_ZN3s2131Graph_Graph_connectivity_6_TestD0Ev
FN:203,_ZN3s2131Graph_Graph_connectivity_6_Test8TestBodyEv
FNDA:1,_ZN3s2131Graph_Graph_connectivity_6_Test8TestBodyEv
FN:203,_ZN3s2131Graph_Graph_connectivity_6_TestD1Ev
FNDA:1,_ZN3s2131Graph_Graph_connectivity_6_TestD1Ev
FN:203,_ZN3s2131Graph_Graph_connectivity_6_TestC1Ev
FNDA:1,_ZN3s2131Graph_Graph_connectivity_6_TestC1Ev
FN:212,_ZN3s2131Graph_Graph_connectivity_7_Test8TestBodyEv
FNDA:1,_ZN3s2131Graph_Graph_connectivity_7_Test8TestBodyEv
FN:212,_ZN3s2131Graph_Graph_connectivity_7_TestD1Ev
FNDA:1,_ZN3s2131Graph_Graph_connectivity_7_TestD1Ev
FN:212,_ZN3s2131Graph_Graph_connectivity_7_TestD0Ev
FNDA:1,_ZN3s2131Graph_Graph_connectivity_7_TestD0Ev
FN:212,_ZN3s2131Graph_Graph_connectivity_7_TestC1Ev
FNDA:1,_ZN3s2131Graph_Graph_connectivity_7_TestC1Ev
FNF:96
FNH:96
DA:5,1
DA:5,1
DA:5,1
DA:5,1
DA:6,1
DA:7,1
DA:8,1
DA:9,1
DA:10,6
DA:11,1
DA:14,1
DA:14,1
DA:14,1
DA:14,1
DA:15,1
DA:16,1
DA:17,1
DA:18,1
DA:19,1
DA:21,1
DA:22,1
DA:25,1
DA:25,1
DA:25,1
DA:25,1
DA:27,2
DA:28,1
DA:29,2
DA:30,2
DA:31,1
DA:33,1
DA:33,1
DA:33,1
DA:33,1
DA:34,2
DA:35,1
DA:36,2
DA:37,1
DA:38,1
DA:39,1
DA:40,1
DA:42,1
DA:42,1
DA:42,1
DA:42,1
DA:43,2
DA:44,1
DA:45,2
DA:46,1
DA:47,1
DA:48,1
DA:49,1
DA:51,1
DA:51,1
DA:51,1
DA:51,1
DA:52,2
DA:53,1
DA:54,1
DA:55,2
DA:56,1
DA:57,1
DA:59,1
DA:59,1
DA:59,1
DA:59,1
DA:60,2
DA:61,1
DA:62,2
DA:63,1
DA:64,1
DA:65,1
DA:66,1
DA:68,1
DA:68,1
DA:68,1
DA:68,1
DA:69,1
DA:70,1
DA:71,1
DA:72,1
DA:74,1
DA:75,1
DA:76,1
DA:77,1
DA:78,1
DA:81,1
DA:81,1
DA:81,1
DA:81,1
DA:82,1
DA:83,1
DA:84,1
DA:85,1
DA:86,1
DA:87,1
DA:88,1
DA:91,1
DA:91,1
DA:91,1
DA:91,1
DA:92,1
DA:93,1
DA:94,1
DA:95,1
DA:96,1
DA:97,1
DA:100,1
DA:100,1
DA:100,1
DA:100,1
DA:101,1
DA:102,1
DA:103,1
DA:104,1
DA:105,1
DA:106,1
DA:107,1
DA:110,1
DA:110,1
DA:110,1
DA:110,1
DA:111,1
DA:112,1
DA:113,1
DA:114,2
DA:117,1
DA:117,1
DA:117,1
DA:117,1
DA:118,1
DA:119,1
DA:120,1
DA:121,1
DA:124,1
DA:124,1
DA:124,1
DA:124,1
DA:125,1
DA:126,1
DA:127,1
DA:128,1
DA:129,1
DA:130,1
DA:131,1
DA:134,1
DA:134,1
DA:134,1
DA:134,1
DA:135,1
DA:136,1
DA:137,1
DA:138,1
DA:141,1
DA:141,1
DA:141,1
DA:141,1
DA:142,1
DA:143,1
DA:144,1
DA:145,2
DA:148,1
DA:148,1
DA:148,1
DA:148,1
DA:149,1
DA:150,1
DA:151,1
DA:152,1
DA:155,1
DA:155,1
DA:155,1
DA:155,1
DA:156,1
DA:157,1
DA:158,1
DA:159,1
DA:160,1
DA:161,1
DA:162,1
DA:165,1
DA:165,1
DA:165,1
DA:165,1
DA:166,1
DA:167,1
DA:168,1
DA:169,1
DA:170,1
DA:171,1
DA:172,1
DA:174,1
DA:174,1
DA:174,1
DA:174,1
DA:175,1
DA:176,1
DA:177,1
DA:178,1
DA:179,1
DA:180,1
DA:181,1
DA:184,1
DA:184,1
DA:184,1
DA:184,1
DA:185,1
DA:186,1
DA:187,1
DA:188,1
DA:189,1
DA:190,1
DA:191,1
DA:194,1
DA:194,1
DA:194,1
DA:194,1
DA:195,1
DA:196,1
DA:197,1
DA:198,1
DA:199,1
DA:200,1
DA:201,1
DA:203,1
DA:203,1
DA:203,1
DA:203,1
DA:204,1
DA:205,1
DA:206,1
DA:207,1
DA:208,1
DA:209,1
DA:210,1
DA:212,1
DA:212,1
DA:212,1
DA:212,1
DA:213,1
DA:214,1
DA:215,1
DA:216,1
DA:217,1
DA:218,1
DA:219,1
LF:246
LH:246
end_of_record
SF:/usr/local/include/c++/10.3.0/bits/char_traits.h
FN:106,_ZN9__gnu_cxx11char_traitsIcE2eqERKcS3_
FNDA:0,_ZN9__gnu_cxx11char_traitsIcE2eqERKcS3_
FN:167,_ZN9__gnu_cxx11char_traitsIcE6lengthEPKc
FNDA:0,_ZN9__gnu_cxx11char_traitsIcE6lengthEPKc
FN:365,_ZNSt11char_traitsIcE6lengthEPKc
FNDA:260129,_ZNSt11char_traitsIcE6lengthEPKc
FN:439,_ZNSt11char_traitsIcE3eofEv
FNDA:67,_ZNSt11char_traitsIcE3eofEv
FNF:4
FNH:2
DA:106,0
DA:107,0
DA:167,0
DA:170,0
DA:171,0
DA:172,0
DA:173,0
DA:262,260129
DA:365,260129
DA:368,260129
DA:369,0
DA:371,260129
DA:439,67
DA:440,67
LF:14
LH:6
end_of_record
SF:/usr/local/include/c++/10.3.0/bits/random.tcc
FN:323,_ZNSt23mersenne_twister_engineIjLm32ELm624ELm397ELm31ELj2567483615ELm11ELj4294967295ELm7ELj2636928640ELm15ELj4022730752ELm18ELj1812433253EE4seedEj
FNDA:260000,_ZNSt23mersenne_twister_engineIjLm32ELm624ELm397ELm31ELj2567483615ELm11ELj4294967295ELm7ELj2636928640ELm15ELj4022730752ELm18ELj1812433253EE4seedEj
FN:394,_ZNSt23mersenne_twister_engineIjLm32ELm624ELm397ELm31ELj2567483615ELm11ELj4294967295ELm7ELj2636928640ELm15ELj4022730752ELm18ELj1812433253EE11_M_gen_randEv
FNDA:260000,_ZNSt23mersenne_twister_engineIjLm32ELm624ELm397ELm31ELj2567483615ELm11ELj4294967295ELm7ELj2636928640ELm15ELj4022730752ELm18ELj1812433253EE11_M_gen_randEv
FN:450,_ZNSt23mersenne_twister_engineIjLm32ELm624ELm397ELm31ELj2567483615ELm11ELj4294967295ELm7ELj2636928640ELm15ELj4022730752ELm18ELj1812433253EEclEv
FNDA:520000,_ZNSt23mersenne_twister_engineIjLm32ELm624ELm397ELm31ELj2567483615ELm11ELj4294967295ELm7ELj2636928640ELm15ELj4022730752ELm18ELj1812433253EEclEv
FN:3282,_ZSt18generate_canonicalIdLm53ESt23mersenne_twister_engineIjLm32ELm624ELm397ELm31ELj2567483615ELm11ELj4294967295ELm7ELj2636928640ELm15ELj4022730752ELm18ELj1812433253EEET_RT1_
FNDA:260000,_ZSt18generate_canonicalIdLm53ESt23mersenne_twister_engineIjLm32ELm624ELm397ELm31ELj2567483615ELm11ELj4294967295ELm7ELj2636928640ELm15ELj4022730752ELm18ELj1812433253EEET_RT1_
FNF:4
FNH:4
DA:323,260000
DA:327,260000
DA:328,260000
DA:330,162240000
DA:332,161980000
DA:333,161980000
DA:334,161980000
DA:335,161980000
DA:336,161980000
DA:337,161980000
DA:339,260000
DA:340,260000
DA:394,260000
DA:398,260000
DA:399,260000
DA:401,59280000
DA:403,59020000
DA:404,59020000
DA:405,118040000
DA:406,59020000
DA:409,103220000
DA:411,102960000
DA:412,102960000
DA:413,205920000
DA:414,102960000
DA:417,260000
DA:418,260000
DA:419,520000
DA:420,260000
DA:421,260000
DA:422,260000
DA:450,520000
DA:455,520000
DA:456,260000
DA:459,520000
DA:460,520000
DA:461,520000
DA:462,520000
DA:463,520000
DA:465,520000
DA:3282,260000
DA:3287,260000
DA:3290,260000
DA:3292,260000
DA:3293,260000
DA:3296,260000
DA:3297,260000
DA:3298,780000
DA:3300,520000
DA:3301,520000
DA:3303,260000
DA:3304,260000
DA:3307,0
DA:3313,260000
LF:54
LH:53
end_of_record
SF:/usr/local/include/gtest/gtest-printers.h
FN:133,_ZN7testing8internal16ContainerPrinter10PrintValueISt6vectorIiSaIiEEvEEvRKT_PSo
FNDA:0,_ZN7testing8internal16ContainerPrinter10PrintValueISt6vectorIiSaIiEEvEEvRKT_PSo
FN:133,_ZN7testing8internal16ContainerPrinter10PrintValueISt6vectorIS3_IiSaIiEESaIS5_EEvEEvRKT_PSo
FNDA:0,_ZN7testing8internal16ContainerPrinter10PrintValueISt6vectorIS3_IiSaIiEESaIS5_EEvEEvRKT_PSo
FN:133,_ZN7testing8internal16ContainerPrinter10PrintValueISt6vectorISt4pairIiiESaIS5_EEvEEvRKT_PSo
FNDA:0,_ZN7testing8internal16ContainerPrinter10PrintValueISt6vectorISt4pairIiiESaIS5_EEvEEvRKT_PSo
FN:213,_ZN7testing8internal52internal_stream_operator_without_lexical_name_lookup13StreamPrinter10PrintValueIivRSoEEvRKT_PSo
FNDA:0,_ZN7testing8internal52internal_stream_operator_without_lexical_name_lookup13StreamPrinter10PrintValueIivRSoEEvRKT_PSo
FN:213,_ZN7testing8internal52internal_stream_operator_without_lexical_name_lookup13StreamPrinter10PrintValueIdvRSoEEvRKT_PSo
FNDA:0,_ZN7testing8internal52internal_stream_operator_without_lexical_name_lookup13StreamPrinter10PrintValueIdvRSoEEvRKT_PSo
FN:307,_ZN7testing8internal17PrintWithFallbackISt6vectorIiSaIiEEEEvRKT_PSo
FNDA:0,_ZN7testing8internal17PrintWithFallbackISt6vectorIiSaIiEEEEvRKT_PSo
FN:307,_ZN7testing8internal17PrintWithFallbackIiEEvRKT_PSo
FNDA:0,_ZN7testing8internal17PrintWithFallbackIiEEvRKT_PSo
FN:307,_ZN7testing8internal17PrintWithFallbackISt6vectorIS2_IiSaIiEESaIS4_EEEEvRKT_PSo
FNDA:0,_ZN7testing8internal17PrintWithFallbackISt6vectorIS2_IiSaIiEESaIS4_EEEEvRKT_PSo
FN:307,_ZN7testing8internal17PrintWithFallbackISt6vectorISt4pairIiiESaIS4_EEEEvRKT_PSo
FNDA:0,_ZN7testing8internal17PrintWithFallbackISt6vectorISt4pairIiiESaIS4_EEEEvRKT_PSo
FN:307,_ZN7testing8internal17PrintWithFallbackIdEEvRKT_PSo
FNDA:0,_ZN7testing8internal17PrintWithFallbackIdEEvRKT_PSo
FN:334,_ZN7testing8internal19FormatForComparisonIdiE6FormatB5cxx11ERKd
FNDA:0,_ZN7testing8internal19FormatForComparisonIdiE6FormatB5cxx11ERKd
FN:334,_ZN7testing8internal19FormatForComparisonIidE6FormatB5cxx11ERKi
FNDA:0,_ZN7testing8internal19FormatForComparisonIidE6FormatB5cxx11ERKi
FN:334,_ZN7testing8internal19FormatForComparisonIbbE6FormatB5cxx11ERKb
FNDA:0,_ZN7testing8internal19FormatForComparisonIbbE6FormatB5cxx11ERKb
FN:334,_ZN7testing8internal19FormatForComparisonISt6vectorISt4pairIiiESaIS4_EES6_E6FormatB5cxx11ERKS6_
FNDA:0,_ZN7testing8internal19FormatForComparisonISt6vectorISt4pairIiiESaIS4_EES6_E6FormatB5cxx11ERKS6_
FN:334,_ZN7testing8internal19FormatForComparisonISt6vectorIS2_IiSaIiEESaIS4_EES6_E6FormatB5cxx11ERKS6_
FNDA:0,_ZN7testing8internal19FormatForComparisonISt6vectorIS2_IiSaIiEESaIS4_EES6_E6FormatB5cxx11ERKS6_
FN:334,_ZN7testing8internal19FormatForComparisonIiiE6FormatB5cxx11ERKi
FNDA:0,_ZN7testing8internal19FormatForComparisonIiiE6FormatB5cxx11ERKi
FN:414,_ZN7testing8internal33FormatForComparisonFailureMessageISt6vectorISt4pairIiiESaIS4_EES6_EENSt7__cxx1112basic_stringIcSt11char_traitsIcESaIcEEERKT_RKT0_
FNDA:0,_ZN7testing8internal33FormatForComparisonFailureMessageISt6vectorISt4pairIiiESaIS4_EES6_EENSt7__cxx1112basic_stringIcSt11char_traitsIcESaIcEEERKT_RKT0_
FN:414,_ZN7testing8internal33FormatForComparisonFailureMessageIdiEENSt7__cxx1112basic_stringIcSt11char_traitsIcESaIcEEERKT_RKT0_
FNDA:0,_ZN7testing8internal33FormatForComparisonFailureMessageIdiEENSt7__cxx1112basic_stringIcSt11char_traitsIcESaIcEEERKT_RKT0_
FN:414,_ZN7testing8internal33FormatForComparisonFailureMessageIidEENSt7__cxx1112basic_stringIcSt11char_traitsIcESaIcEEERKT_RKT0_
FNDA:0,_ZN7testing8internal33FormatForComparisonFailureMessageIidEENSt7__cxx1112basic_stringIcSt11char_traitsIcESaIcEEERKT_RKT0_
FN:414,_ZN7testing8internal33FormatForComparisonFailureMessageIiiEENSt7__cxx1112basic_stringIcSt11char_traitsIcESaIcEEERKT_RKT0_
FNDA:0,_ZN7testing8internal33FormatForComparisonFailureMessageIiiEENSt7__cxx1112basic_stringIcSt11char_traitsIcESaIcEEERKT_RKT0_
FN:414,_ZN7testing8internal33FormatForComparisonFailureMessageISt6vectorIS2_IiSaIiEESaIS4_EES6_EENSt7__cxx1112basic_stringIcSt11char_traitsIcESaIcEEERKT_RKT0_
FNDA:0,_ZN7testing8internal33FormatForComparisonFailureMessageISt6vectorIS2_IiSaIiEESaIS4_EES6_EENSt7__cxx1112basic_stringIcSt11char_traitsIcESaIcEEERKT_RKT0_
FN:414,_ZN7testing8internal33FormatForComparisonFailureMessageIbbEENSt7__cxx1112basic_stringIcSt11char_traitsIcESaIcEEERKT_RKT0_
FNDA:0,_ZN7testing8internal33FormatForComparisonFailureMessageIbbEENSt7__cxx1112basic_stringIcSt11char_traitsIcESaIcEEERKT_RKT0_
FN:441,_ZN7testing8internal7PrintToIiEEvRKT_PSo
FNDA:0,_ZN7testing8internal7PrintToIiEEvRKT_PSo
FN:441,_ZN7testing8internal7PrintToISt6vectorIS2_IiSaIiEESaIS4_EEEEvRKT_PSo
FNDA:0,_ZN7testing8internal7PrintToISt6vectorIS2_IiSaIiEESaIS4_EEEEvRKT_PSo
FN:441,_ZN7testing8internal7PrintToISt6vectorISt4pairIiiESaIS4_EEEEvRKT_PSo
FNDA:0,_ZN7testing8internal7PrintToISt6vectorISt4pairIiiESaIS4_EEEEvRKT_PSo
FN:441,_ZN7testing8internal7PrintToIdEEvRKT_PSo
FNDA:0,_ZN7testing8internal7PrintToIdEEvRKT_PSo
FN:441,_ZN7testing8internal7PrintToISt6vectorIiSaIiEEEEvRKT_PSo
FNDA:0,_ZN7testing8internal7PrintToISt6vectorIiSaIiEEEEvRKT_PSo
FN:460,_ZN7testing8internal7PrintToEbPSo
FNDA:0,_ZN7testing8internal7PrintToEbPSo
FN:673,_ZN7testing8internal7PrintToIiiEEvRKSt4pairIT_T0_EPSo
FNDA:0,_ZN7testing8internal7PrintToIiiEEvRKSt4pairIT_T0_EPSo
FN:695,_ZN7testing8internal16UniversalPrinterISt4pairIiiEE5PrintERKS3_PSo
FNDA:0,_ZN7testing8internal16UniversalPrinterISt4pairIiiEE5PrintERKS3_PSo
FN:695,_ZN7testing8internal16UniversalPrinterISt6vectorIiSaIiEEE5PrintERKS4_PSo
FNDA:0,_ZN7testing8internal16UniversalPrinterISt6vectorIiSaIiEEE5PrintERKS4_PSo
FN:695,_ZN7testing8internal16UniversalPrinterIdE5PrintERKdPSo
FNDA:0,_ZN7testing8internal16UniversalPrinterIdE5PrintERKdPSo
FN:695,_ZN7testing8internal16UniversalPrinterIbE5PrintERKbPSo
FNDA:0,_ZN7testing8internal16UniversalPrinterIbE5PrintERKbPSo
FN:695,_ZN7testing8internal16UniversalPrinterISt6vectorISt4pairIiiESaIS4_EEE5PrintERKS6_PSo
FNDA:0,_ZN7testing8internal16UniversalPrinterISt6vectorISt4pairIiiESaIS4_EEE5PrintERKS6_PSo
FN:695,_ZN7testing8internal16UniversalPrinterISt6vectorIS2_IiSaIiEESaIS4_EEE5PrintERKS6_PSo
FNDA:0,_ZN7testing8internal16UniversalPrinterISt6vectorIS2_IiSaIiEESaIS4_EEE5PrintERKS6_PSo
FN:695,_ZN7testing8internal16UniversalPrinterIiE5PrintERKiPSo
FNDA:0,_ZN7testing8internal16UniversalPrinterIiE5PrintERKiPSo
FN:885,_ZN7testing8internal21UniversalTersePrinterIdE5PrintERKdPSo
FNDA:0,_ZN7testing8internal21UniversalTersePrinterIdE5PrintERKdPSo
FN:885,_ZN7testing8internal21UniversalTersePrinterIbE5PrintERKbPSo
FNDA:0,_ZN7testing8internal21UniversalTersePrinterIbE5PrintERKbPSo
FN:885,_ZN7testing8internal21UniversalTersePrinterISt6vectorISt4pairIiiESaIS4_EEE5PrintERKS6_PSo
FNDA:0,_ZN7testing8internal21UniversalTersePrinterISt6vectorISt4pairIiiESaIS4_EEE5PrintERKS6_PSo
FN:885,_ZN7testing8internal21UniversalTersePrinterISt6vectorIS2_IiSaIiEESaIS4_EEE5PrintERKS6_PSo
FNDA:0,_ZN7testing8internal21UniversalTersePrinterISt6vectorIS2_IiSaIiEESaIS4_EEE5PrintERKS6_PSo
FN:885,_ZN7testing8internal21UniversalTersePrinterIiE5PrintERKiPSo
FNDA:0,_ZN7testing8internal21UniversalTersePrinterIiE5PrintERKiPSo
FN:997,_ZN7testing8internal14UniversalPrintISt6vectorISt4pairIiiESaIS4_EEEEvRKT_PSo
FNDA:0,_ZN7testing8internal14UniversalPrintISt6vectorISt4pairIiiESaIS4_EEEEvRKT_PSo
FN:997,_ZN7testing8internal14UniversalPrintISt4pairIiiEEEvRKT_PSo
FNDA:0,_ZN7testing8internal14UniversalPrintISt4pairIiiEEEvRKT_PSo
FN:997,_ZN7testing8internal14UniversalPrintISt6vectorIiSaIiEEEEvRKT_PSo
FNDA:0,_ZN7testing8internal14UniversalPrintISt6vectorIiSaIiEEEEvRKT_PSo
FN:997,_ZN7testing8internal14UniversalPrintIdEEvRKT_PSo
FNDA:0,_ZN7testing8internal14UniversalPrintIdEEvRKT_PSo
FN:997,_ZN7testing8internal14UniversalPrintIbEEvRKT_PSo
FNDA:0,_ZN7testing8internal14UniversalPrintIbEEvRKT_PSo
FN:997,_ZN7testing8internal14UniversalPrintISt6vectorIS2_IiSaIiEESaIS4_EEEEvRKT_PSo
FNDA:0,_ZN7testing8internal14UniversalPrintISt6vectorIS2_IiSaIiEESaIS4_EEEEvRKT_PSo
FN:997,_ZN7testing8internal14UniversalPrintIiEEvRKT_PSo
FNDA:0,_ZN7testing8internal14UniversalPrintIiEEvRKT_PSo
FN:1037,_ZN7testing13PrintToStringIiEENSt7__cxx1112basic_stringIcSt11char_traitsIcESaIcEEERKT_
FNDA:0,_ZN7testing13PrintToStringIiEENSt7__cxx1112basic_stringIcSt11char_traitsIcESaIcEEERKT_
FN:1037,_ZN7testing13PrintToStringISt6vectorIS1_IiSaIiEESaIS3_EEEENSt7__cxx1112basic_stringIcSt11char_traitsIcESaIcEEERKT_
FNDA:0,_ZN7testing13PrintToStringISt6vectorIS1_IiSaIiEESaIS3_EEEENSt7__cxx1112basic_stringIcSt11char_traitsIcESaIcEEERKT_
FN:1037,_ZN7testing13PrintToStringISt6vectorISt4pairIiiESaIS3_EEEENSt7__cxx1112basic_stringIcSt11char_traitsIcESaIcEEERKT_
FNDA:0,_ZN7testing13PrintToStringISt6vectorISt4pairIiiESaIS3_EEEENSt7__cxx1112basic_stringIcSt11char_traitsIcESaIcEEERKT_
FN:1037,_ZN7testing13PrintToStringIbEENSt7__cxx1112basic_stringIcSt11char_traitsIcESaIcEEERKT_
FNDA:0,_ZN7testing13PrintToStringIbEENSt7__cxx1112basic_stringIcSt11char_traitsIcESaIcEEERKT_
FN:1037,_ZN7testing13PrintToStringIdEENSt7__cxx1112basic_stringIcSt11char_traitsIcESaIcEEERKT_
FNDA:0,_ZN7testing13PrintToStringIdEENSt7__cxx1112basic_stringIcSt11char_traitsIcESaIcEEERKT_
FNF:53
FNH:0
DA:133,0
DA:134,0
DA:135,0
DA:136,0
DA:137,0
DA:138,0
DA:139,0
DA:140,0
DA:141,0
DA:142,0
DA:145,0
DA:148,0
DA:149,0
DA:152,0
DA:153,0
DA:155,0
DA:156,0
DA:133,0
DA:134,0
DA:135,0
DA:136,0
DA:137,0
DA:138,0
DA:139,0
DA:140,0
DA:141,0
DA:142,0
DA:145,0
DA:148,0
DA:149,0
DA:152,0
DA:153,0
DA:155,0
DA:156,0
DA:133,0
DA:134,0
DA:135,0
DA:136,0
DA:137,0
DA:138,0
DA:139,0
DA:140,0
DA:141,0
DA:142,0
DA:145,0
DA:148,0
DA:149,0
DA:152,0
DA:153,0
DA:155,0
DA:156,0
DA:213,0
DA:216,0
DA:217,0
DA:213,0
DA:216,0
DA:217,0
DA:307,0
DA:313,0
DA:314,0
DA:307,0
DA:313,0
DA:314,0
DA:307,0
DA:313,0
DA:314,0
DA:307,0
DA:313,0
DA:314,0
DA:307,0
DA:313,0
DA:314,0
DA:334,0
DA:335,0
DA:334,0
DA:335,0
DA:334,0
DA:335,0
DA:334,0
DA:335,0
DA:334,0
DA:335,0
DA:334,0
DA:335,0
DA:414,0
DA:416,0
DA:414,0
DA:416,0
DA:414,0
DA:416,0
DA:414,0
DA:416,0
DA:414,0
DA:416,0
DA:414,0
DA:416,0
DA:441,0
DA:442,0
DA:443,0
DA:441,0
DA:442,0
DA:443,0
DA:441,0
DA:442,0
DA:443,0
DA:441,0
DA:442,0
DA:443,0
DA:441,0
DA:442,0
DA:443,0
DA:460,0
DA:461,0
DA:462,0
DA:673,0
DA:674,0
DA:677,0
DA:678,0
DA:679,0
DA:680,0
DA:681,0
DA:695,0
DA:704,0
DA:705,0
DA:695,0
DA:704,0
DA:705,0
DA:695,0
DA:704,0
DA:705,0
DA:695,0
DA:704,0
DA:705,0
DA:695,0
DA:704,0
DA:705,0
DA:695,0
DA:704,0
DA:705,0
DA:695,0
DA:704,0
DA:705,0
DA:885,0
DA:886,0
DA:887,0
DA:885,0
DA:886,0
DA:887,0
DA:885,0
DA:886,0
DA:887,0
DA:885,0
DA:886,0
DA:887,0
DA:885,0
DA:886,0
DA:887,0
DA:997,0
DA:1001,0
DA:1002,0
DA:997,0
DA:1001,0
DA:1002,0
DA:997,0
DA:1001,0
DA:1002,0
DA:997,0
DA:1001,0
DA:1002,0
DA:997,0
DA:1001,0
DA:1002,0
DA:997,0
DA:1001,0
DA:1002,0
DA:997,0
DA:1001,0
DA:1002,0
DA:1037,0
DA:1038,0
DA:1039,0
DA:1040,0
DA:1037,0
DA:1038,0
DA:1039,0
DA:1040,0
DA:1037,0
DA:1038,0
DA:1039,0
DA:1040,0
DA:1037,0
DA:1038,0
DA:1039,0
DA:1040,0
DA:1037,0
DA:1038,0
DA:1039,0
DA:1040,0
LF:198
LH:0
end_of_record
SF:/usr/local/include/c++/10.3.0/bits/allocator.h
FN:144,_ZNSaIiEC2Ev
FNDA:41205,_ZNSaIiEC2Ev
FN:144,_ZNSaISt4pairIiiEEC1Ev
FNDA:1,_ZNSaISt4pairIiiEEC1Ev
FN:144,_ZNSaISt4pairIiiEEC2Ev
FNDA:79,_ZNSaISt4pairIiiEEC2Ev
FN:144,_ZNSaISt6vectorIdSaIdEEEC1Ev
FNDA:2,_ZNSaISt6vectorIdSaIdEEEC1Ev
FN:144,_ZNSaIdEC1Ev
FNDA:0,_ZNSaIdEC1Ev
FN:144,_ZNSaIN3s214ListIiEEEC1Ev
FNDA:34,_ZNSaIN3s214ListIiEEEC1Ev
FN:144,_ZNSaISt6vectorIiSaIiEEEC1Ev
FNDA:40068,_ZNSaISt6vectorIiSaIiEEEC1Ev
FN:144,_ZNSaISt6vectorIiSaIiEEEC2Ev
FNDA:189,_ZNSaISt6vectorIiSaIiEEEC2Ev
FN:144,_ZNSaIbEC1Ev
FNDA:21,_ZNSaIbEC1Ev
FN:144,_ZNSaIiEC1Ev
FNDA:40261,_ZNSaIiEC1Ev
FN:147,_ZNSaIdEC1ERKS_
FNDA:0,_ZNSaIdEC1ERKS_
FN:147,_ZNSaIdEC2ERKS_
FNDA:3300017,_ZNSaIdEC2ERKS_
FN:147,_ZNSaISt6vectorIdSaIdEEEC2ERKS2_
FNDA:0,_ZNSaISt6vectorIdSaIdEEEC2ERKS2_
FN:147,_ZNSaISt6vectorIdSaIdEEEC1ERKS2_
FNDA:300002,_ZNSaISt6vectorIdSaIdEEEC1ERKS2_
FN:147,_ZNSaImEC2ERKS_
FNDA:134,_ZNSaImEC2ERKS_
FN:147,_ZNSaImEC1ERKS_
FNDA:113,_ZNSaImEC1ERKS_
FN:147,_ZNSaISt4pairIiiEEC2ERKS1_
FNDA:2,_ZNSaISt4pairIiiEEC2ERKS1_
FN:147,_ZNSaISt4pairIiiEEC1ERKS1_
FNDA:2,_ZNSaISt4pairIiiEEC1ERKS1_
FN:147,_ZNSaISt6vectorIiSaIiEEEC1ERKS2_
FNDA:420355,_ZNSaISt6vectorIiSaIiEEEC1ERKS2_
FN:147,_ZNSaISt6vectorIiSaIiEEEC2ERKS2_
FNDA:420355,_ZNSaISt6vectorIiSaIiEEEC2ERKS2_
FN:147,_ZNSaIiEC1ERKS_
FNDA:3693802,_ZNSaIiEC1ERKS_
FN:147,_ZNSaIiEC2ERKS_
FNDA:3695256,_ZNSaIiEC2ERKS_
FN:157,_ZNSaIPiEC1IiEERKSaIT_E
FNDA:16,_ZNSaIPiEC1IiEERKSaIT_E
FN:157,_ZNSaIbEC1ImEERKSaIT_E
FNDA:113,_ZNSaIbEC1ImEERKSaIT_E
FN:157,_ZNSaImEC1IbEERKSaIT_E
FNDA:134,_ZNSaImEC1IbEERKSaIT_E
FN:162,_ZNSaIbED1Ev
FNDA:134,_ZNSaIbED1Ev
FN:162,_ZNSaISt6vectorIiSaIiEEED2Ev
FNDA:420544,_ZNSaISt6vectorIiSaIiEEED2Ev
FN:162,_ZNSaISt6vectorIiSaIiEEED1Ev
FNDA:460423,_ZNSaISt6vectorIiSaIiEEED1Ev
FN:162,_ZNSaISt4pairIiiEED2Ev
FNDA:81,_ZNSaISt4pairIiiEED2Ev
FN:162,_ZNSaISt4pairIiiEED1Ev
FNDA:3,_ZNSaISt4pairIiiEED1Ev
FN:162,_ZNSaIiED2Ev
FNDA:3736456,_ZNSaIiED2Ev
FN:162,_ZNSaIiED1Ev
FNDA:3734063,_ZNSaIiED1Ev
FN:162,_ZNSaIPiED1Ev
FNDA:16,_ZNSaIPiED1Ev
FN:162,_ZNSaImED2Ev
FNDA:0,_ZNSaImED2Ev
FN:162,_ZNSaIN3s214ListIiEEED1Ev
FNDA:34,_ZNSaIN3s214ListIiEEED1Ev
FN:162,_ZNSaIdED2Ev
FNDA:0,_ZNSaIdED2Ev
FN:162,_ZNSaIdED1Ev
FNDA:0,_ZNSaIdED1Ev
FN:162,_ZNSaISt6vectorIdSaIdEEED2Ev
FNDA:300002,_ZNSaISt6vectorIdSaIdEEED2Ev
FN:162,_ZNSaISt6vectorIdSaIdEEED1Ev
FNDA:300004,_ZNSaISt6vectorIdSaIdEEED1Ev
FN:162,_ZNSaImED1Ev
FNDA:247,_ZNSaImED1Ev
FN:197,_ZStneRKSaIiES1_
FNDA:0,_ZStneRKSaIiES1_
FN:197,_ZStneRKSaISt6vectorIiSaIiEEES4_
FNDA:0,_ZStneRKSaISt6vectorIiSaIiEEES4_
FN:301,_ZNSt19__shrink_to_fit_auxISt6vectorIiSaIiEELb1EE8_S_do_itERS2_
FNDA:11,_ZNSt19__shrink_to_fit_auxISt6vectorIiSaIiEELb1EE8_S_do_itERS2_
FNF:43
FNH:35
DA:144,34
DA:144,1
DA:144,79
DA:144,2
DA:144,0
DA:144,40068
DA:144,189
DA:144,21
DA:144,40261
DA:144,41205
DA:147,2
DA:148,2
DA:147,2
DA:148,2
DA:147,113
DA:148,113
DA:147,134
DA:148,134
DA:147,300002
DA:148,300002
DA:147,0
DA:148,0
DA:147,0
DA:148,0
DA:147,3300017
DA:148,3300017
DA:147,420355
DA:148,420355
DA:147,420355
DA:148,420355
DA:147,3693802
DA:148,3693802
DA:147,3695256
DA:148,3695256
DA:157,16
DA:157,134
DA:157,113
DA:162,16
DA:162,34
DA:162,247
DA:162,0
DA:162,300004
DA:162,300002
DA:162,0
DA:162,0
DA:162,134
DA:162,3734063
DA:162,3736456
DA:162,3
DA:162,81
DA:162,460423
DA:162,420544
DA:197,0
DA:198,0
DA:197,0
DA:198,0
DA:301,11
DA:306,22
DA:308,11
DA:309,11
DA:311,0
DA:312,0
LF:62
LH:48
end_of_record
SF:/usr/local/include/c++/10.3.0/bits/stl_heap.h
FN:134,_ZSt11__push_heapIN9__gnu_cxx17__normal_iteratorIPSt4pairIiiESt6vectorIS3_SaIS3_EEEElS3_NS0_5__ops14_Iter_comp_valISt4lessIS3_EEEEvT_T0_SF_T1_RT2_
FNDA:863,_ZSt11__push_heapIN9__gnu_cxx17__normal_iteratorIPSt4pairIiiESt6vectorIS3_SaIS3_EEEElS3_NS0_5__ops14_Iter_comp_valISt4lessIS3_EEEEvT_T0_SF_T1_RT2_
FN:197,_ZSt9push_heapIN9__gnu_cxx17__normal_iteratorIPSt4pairIiiESt6vectorIS3_SaIS3_EEEESt4lessIS3_EEvT_SB_T0_
FNDA:450,_ZSt9push_heapIN9__gnu_cxx17__normal_iteratorIPSt4pairIiiESt6vectorIS3_SaIS3_EEEESt4lessIS3_EEvT_SB_T0_
FN:223,_ZSt13__adjust_heapIN9__gnu_cxx17__normal_iteratorIPSt4pairIiiESt6vectorIS3_SaIS3_EEEElS3_NS0_5__ops15_Iter_comp_iterISt4lessIS3_EEEEvT_T0_SF_T1_T2_
FNDA:413,_ZSt13__adjust_heapIN9__gnu_cxx17__normal_iteratorIPSt4pairIiiESt6vectorIS3_SaIS3_EEEElS3_NS0_5__ops15_Iter_comp_iterISt4lessIS3_EEEEvT_T0_SF_T1_T2_
FN:253,_ZSt10__pop_heapIN9__gnu_cxx17__normal_iteratorIPSt4pairIiiESt6vectorIS3_SaIS3_EEEENS0_5__ops15_Iter_comp_iterISt4lessIS3_EEEEvT_SE_SE_RT0_
FNDA:413,_ZSt10__pop_heapIN9__gnu_cxx17__normal_iteratorIPSt4pairIiiESt6vectorIS3_SaIS3_EEEENS0_5__ops15_Iter_comp_iterISt4lessIS3_EEEEvT_SE_SE_RT0_
FN:316,_ZSt8pop_heapIN9__gnu_cxx17__normal_iteratorIPSt4pairIiiESt6vectorIS3_SaIS3_EEEESt4lessIS3_EEvT_SB_T0_
FNDA:450,_ZSt8pop_heapIN9__gnu_cxx17__normal_iteratorIPSt4pairIiiESt6vectorIS3_SaIS3_EEEESt4lessIS3_EEvT_SB_T0_
FNF:5
FNH:5
DA:134,863
DA:138,863
DA:139,1131
DA:141,268
DA:142,268
DA:143,268
DA:145,863
DA:146,863
DA:197,450
DA:213,450
DA:214,450
DA:215,450
DA:216,450
DA:217,450
DA:223,413
DA:226,413
DA:227,413
DA:228,1390
DA:230,977
DA:231,977
DA:233,547
DA:234,977
DA:235,977
DA:237,413
DA:239,77
DA:240,77
DA:242,77
DA:245,413
DA:246,413
DA:247,413
DA:248,413
DA:253,413
DA:261,413
DA:262,413
DA:263,413
DA:264,413
DA:265,413
DA:266,413
DA:316,450
DA:327,450
DA:331,413
DA:332,413
DA:334,450
LF:43
LH:43
end_of_record
SF:/usr/local/include/c++/10.3.0/bits/basic_string.tcc
FN:206,_ZNSt7__cxx1112basic_stringIcSt11char_traitsIcESaIcEE12_M_constructIPKcEEvT_S8_St20forward_iterator_tag
FNDA:260423,_ZNSt7__cxx1112basic_stringIcSt11char_traitsIcESaIcEE12_M_constructIPKcEEvT_S8_St20forward_iterator_tag
FN:1152,_ZStplIcSt11char_traitsIcESaIcEENSt7__cxx1112basic_stringIT_T0_T1_EEPKS5_RKS8_
FNDA:0,_ZStplIcSt11char_traitsIcESaIcEENSt7__cxx1112basic_stringIT_T0_T1_EEPKS5_RKS8_
FNF:2
FNH:1
DA:206,260423
DA:211,260423
DA:212,0
DA:215,260423
DA:217,260423
DA:219,318
DA:220,318
DA:225,260423
DA:226,0
DA:228,0
DA:229,0
DA:232,260423
DA:233,260423
DA:1152,0
DA:1161,0
DA:1162,0
DA:1164,0
DA:1165,0
DA:1166,0
DA:1167,0
LF:20
LH:9
end_of_record
SF:/usr/local/include/c++/10.3.0/bits/stl_bvector.h
FN:77,_ZNSt14_Bit_referenceC1EPmm
FNDA:25310,_ZNSt14_Bit_referenceC1EPmm
FN:86,_ZNKSt14_Bit_referencecvbEv
FNDA:21150,_ZNKSt14_Bit_referencecvbEv
FN:90,_ZNSt14_Bit_referenceaSEb
FNDA:4160,_ZNSt14_Bit_referenceaSEb
FN:148,_ZNSt18_Bit_iterator_baseC2EPmj
FNDA:22246,_ZNSt18_Bit_iterator_baseC2EPmj
FN:152,_ZNSt18_Bit_iterator_base10_M_bump_upEv
FNDA:8162,_ZNSt18_Bit_iterator_base10_M_bump_upEv
FN:172,_ZNSt18_Bit_iterator_base7_M_incrEl
FNDA:134,_ZNSt18_Bit_iterator_base7_M_incrEl
FN:224,_ZStmiRKSt18_Bit_iterator_baseS1_
FNDA:2168,_ZStmiRKSt18_Bit_iterator_baseS1_
FN:241,_ZNSt13_Bit_iteratorC1Ev
FNDA:402,_ZNSt13_Bit_iteratorC1Ev
FN:243,_ZNSt13_Bit_iteratorC1EPmj
FNDA:17395,_ZNSt13_Bit_iteratorC1EPmj
FN:251,_ZNKSt13_Bit_iteratordeEv
FNDA:21229,_ZNKSt13_Bit_iteratordeEv
FN:255,_ZNSt13_Bit_iteratorppEv
FNDA:4081,_ZNSt13_Bit_iteratorppEv
FN:285,_ZNSt13_Bit_iteratorpLEl
FNDA:134,_ZNSt13_Bit_iteratorpLEl
FN:303,_ZStplRKSt13_Bit_iteratorl
FNDA:134,_ZStplRKSt13_Bit_iteratorl
FN:336,_ZNSt19_Bit_const_iteratorC1EPmj
FNDA:2281,_ZNSt19_Bit_const_iteratorC1EPmj
FN:339,_ZNSt19_Bit_const_iteratorC1ERKSt13_Bit_iterator
FNDA:2168,_ZNSt19_Bit_const_iteratorC1ERKSt13_Bit_iterator
FN:347,_ZNKSt19_Bit_const_iteratordeEv
FNDA:4081,_ZNKSt19_Bit_const_iteratordeEv
FN:351,_ZNSt19_Bit_const_iteratorppEv
FNDA:4081,_ZNSt19_Bit_const_iteratorppEv
FN:467,_ZNSt13_Bvector_baseISaIbEE18_Bvector_impl_dataC2Ev
FNDA:134,_ZNSt13_Bvector_baseISaIbEE18_Bvector_impl_dataC2Ev
FN:488,_ZNSt13_Bvector_baseISaIbEE18_Bvector_impl_data8_M_resetEv
FNDA:134,_ZNSt13_Bvector_baseISaIbEE18_Bvector_impl_data8_M_resetEv
FN:504,_ZNSt13_Bvector_baseISaIbEE13_Bvector_implC1ERKSaImE
FNDA:134,_ZNSt13_Bvector_baseISaIbEE13_Bvector_implC1ERKSaImE
FN:513,_ZNKSt13_Bvector_baseISaIbEE13_Bvector_impl11_M_end_addrEv
FNDA:155,_ZNKSt13_Bvector_baseISaIbEE13_Bvector_impl11_M_end_addrEv
FN:529,_ZNKSt13_Bvector_baseISaIbEE20_M_get_Bit_allocatorEv
FNDA:113,_ZNKSt13_Bvector_baseISaIbEE20_M_get_Bit_allocatorEv
FN:542,_ZNSt13_Bvector_baseISaIbEEC2ERKS0_
FNDA:134,_ZNSt13_Bvector_baseISaIbEEC2ERKS0_
FN:549,_ZNSt13_Bvector_baseISaIbEED2Ev
FNDA:134,_ZNSt13_Bvector_baseISaIbEED2Ev
FN:556,_ZNSt13_Bvector_baseISaIbEE11_M_allocateEm
FNDA:134,_ZNSt13_Bvector_baseISaIbEE11_M_allocateEm
FN:560,_ZNSt13_Bvector_baseISaIbEE13_M_deallocateEv
FNDA:134,_ZNSt13_Bvector_baseISaIbEE13_M_deallocateEv
FN:579,_ZNSt13_Bvector_baseISaIbEE8_S_nwordEm
FNDA:268,_ZNSt13_Bvector_baseISaIbEE8_S_nwordEm
FN:666,_ZNSt6vectorIbSaIbEEC1EmRKbRKS0_
FNDA:21,_ZNSt6vectorIbSaIbEEC1EmRKbRKS0_
FN:679,_ZNSt6vectorIbSaIbEEC1ERKS1_
FNDA:113,_ZNSt6vectorIbSaIbEEC1ERKS1_
FN:737,_ZNSt6vectorIbSaIbEED1Ev
FNDA:134,_ZNSt6vectorIbSaIbEED1Ev
FN:838,_ZNKSt6vectorIbSaIbEE5beginEv
FNDA:2168,_ZNKSt6vectorIbSaIbEE5beginEv
FN:846,_ZNKSt6vectorIbSaIbEE3endEv
FNDA:2168,_ZNKSt6vectorIbSaIbEE3endEv
FN:884,_ZNKSt6vectorIbSaIbEE4sizeEv
FNDA:2055,_ZNKSt6vectorIbSaIbEE4sizeEv
FN:909,_ZNSt6vectorIbSaIbEEixEm
FNDA:17148,_ZNSt6vectorIbSaIbEEixEm
FN:1134,_ZNSt6vectorIbSaIbEE15_M_copy_alignedESt19_Bit_const_iteratorS2_St13_Bit_iterator
FNDA:113,_ZNSt6vectorIbSaIbEE15_M_copy_alignedESt19_Bit_const_iteratorS2_St13_Bit_iterator
FN:1143,_ZNSt6vectorIbSaIbEE13_M_initializeEm
FNDA:134,_ZNSt6vectorIbSaIbEE13_M_initializeEm
FN:1161,_ZNSt6vectorIbSaIbEE19_M_initialize_valueEb
FNDA:21,_ZNSt6vectorIbSaIbEE19_M_initialize_valueEb
FNF:37
FNH:37
DA:77,25310
DA:78,25310
DA:86,21150
DA:87,21150
DA:90,4160
DA:92,4160
DA:93,2663
DA:95,1497
DA:96,4160
DA:148,22246
DA:149,22246
DA:152,8162
DA:154,8162
DA:156,0
DA:157,0
DA:159,8162
DA:172,134
DA:174,134
DA:175,134
DA:176,134
DA:177,134
DA:179,0
DA:180,0
DA:182,134
DA:183,134
DA:224,2168
DA:226,2168
DA:227,2168
DA:241,402
DA:243,17395
DA:244,17395
DA:251,21229
DA:252,21229
DA:255,4081
DA:257,4081
DA:258,4081
DA:285,134
DA:287,134
DA:288,134
DA:303,134
DA:305,134
DA:306,134
DA:307,134
DA:336,2281
DA:337,2281
DA:339,2168
DA:340,2168
DA:347,4081
DA:348,4081
DA:351,4081
DA:353,4081
DA:354,4081
DA:467,134
DA:468,134
DA:469,134
DA:488,134
DA:490,134
DA:491,134
DA:492,134
DA:504,134
DA:505,134
DA:506,134
DA:513,155
DA:515,155
DA:516,155
DA:517,0
DA:529,113
DA:530,113
DA:542,134
DA:543,134
DA:549,134
DA:550,134
DA:556,134
DA:557,134
DA:560,134
DA:562,134
DA:564,134
DA:565,134
DA:566,134
DA:568,134
DA:570,134
DA:579,268
DA:580,268
DA:666,21
DA:673,21
DA:675,21
DA:676,21
DA:677,21
DA:679,113
DA:680,113
DA:682,113
DA:683,113
DA:684,113
DA:737,134
DA:838,2168
DA:839,2168
DA:846,2168
DA:847,2168
DA:884,2055
DA:885,2055
DA:909,17148
DA:911,34296
DA:912,34296
DA:1134,113
DA:1137,113
DA:1138,226
DA:1139,226
DA:1143,134
DA:1145,134
DA:1147,134
DA:1148,134
DA:1149,134
DA:1153,0
DA:1154,0
DA:1156,134
DA:1158,134
DA:1161,21
DA:1163,21
DA:1164,21
DA:1165,21
DA:1167,21
LF:121
LH:114
end_of_record
SF:/usr/local/include/c++/10.3.0/bits/stl_algobase.h
FN:90,_ZSt8__memcmpIiiEiPKT_PKT0_m
FNDA:89,_ZSt8__memcmpIiiEiPKT_PKT0_m
FN:230,_ZSt3minImERKT_S2_S2_
FNDA:751102,_ZSt3minImERKT_S2_S2_
FN:230,_ZSt3minIiERKT_S2_S2_
FNDA:71192,_ZSt3minIiERKT_S2_S2_
FN:254,_ZSt3maxImERKT_S2_S2_
FNDA:0,_ZSt3maxImERKT_S2_S2_
FN:254,_ZSt3maxIiERKT_S2_S2_
FNDA:177,_ZSt3maxIiERKT_S2_S2_
FN:313,_ZSt12__niter_baseIPKiET_S2_
FNDA:448,_ZSt12__niter_baseIPKiET_S2_
FN:313,_ZSt12__niter_baseIPSt4pairIiiEET_S3_
FNDA:396,_ZSt12__niter_baseIPSt4pairIiiEET_S3_
FN:313,_ZSt12__niter_baseIPdET_S1_
FNDA:3000015,_ZSt12__niter_baseIPdET_S1_
FN:313,_ZSt12__niter_baseIPPiET_S2_
FNDA:0,_ZSt12__niter_baseIPPiET_S2_
FN:313,_ZSt12__niter_baseIPiET_S1_
FNDA:0,_ZSt12__niter_baseIPiET_S1_
FN:313,_ZSt12__niter_baseISt13_Bit_iteratorET_S1_
FNDA:113,_ZSt12__niter_baseISt13_Bit_iteratorET_S1_
FN:313,_ZSt12__niter_baseIPmET_S1_
FNDA:0,_ZSt12__niter_baseIPmET_S1_
FN:313,_ZSt12__niter_baseISt19_Bit_const_iteratorET_S1_
FNDA:226,_ZSt12__niter_baseISt19_Bit_const_iteratorET_S1_
FN:313,_ZSt12__niter_baseIPSt6vectorIiSaIiEEET_S4_
FNDA:1494,_ZSt12__niter_baseIPSt6vectorIiSaIiEEET_S4_
FN:323,_ZSt12__niter_wrapIN9__gnu_cxx17__normal_iteratorIPSt6vectorIiSaIiEES2_IS4_SaIS4_EEEES5_ET_S9_T0_
FNDA:40000,_ZSt12__niter_wrapIN9__gnu_cxx17__normal_iteratorIPSt6vectorIiSaIiEES2_IS4_SaIS4_EEEES5_ET_S9_T0_
FN:323,_ZSt12__niter_wrapIN9__gnu_cxx17__normal_iteratorIPiSt6vectorIiSaIiEEEES2_ET_S7_T0_
FNDA:300000,_ZSt12__niter_wrapIN9__gnu_cxx17__normal_iteratorIPiSt6vectorIiSaIiEEEES2_ET_S7_T0_
FN:330,_ZSt12__niter_wrapIPmET_RKS1_S1_
FNDA:0,_ZSt12__niter_wrapIPmET_RKS1_S1_
FN:330,_ZSt12__niter_wrapISt13_Bit_iteratorET_RKS1_S1_
FNDA:113,_ZSt12__niter_wrapISt13_Bit_iteratorET_RKS1_S1_
FN:330,_ZSt12__niter_wrapIPiET_RKS1_S1_
FNDA:0,_ZSt12__niter_wrapIPiET_RKS1_S1_
FN:330,_ZSt12__niter_wrapIPdET_RKS1_S1_
FNDA:0,_ZSt12__niter_wrapIPdET_RKS1_S1_
FN:330,_ZSt12__niter_wrapIPPiET_RKS2_S2_
FNDA:0,_ZSt12__niter_wrapIPPiET_RKS2_S2_
FN:330,_ZSt12__niter_wrapIPSt6vectorIiSaIiEEET_RKS4_S4_
FNDA:0,_ZSt12__niter_wrapIPSt6vectorIiSaIiEEET_RKS4_S4_
FN:375,_ZNSt11__copy_moveILb0ELb0ESt26random_access_iterator_tagE8__copy_mIPSt6vectorIiSaIiEES6_EET0_T_S8_S7_
FNDA:0,_ZNSt11__copy_moveILb0ELb0ESt26random_access_iterator_tagE8__copy_mIPSt6vectorIiSaIiEES6_EET0_T_S8_S7_
FN:375,_ZNSt11__copy_moveILb0ELb0ESt26random_access_iterator_tagE8__copy_mISt19_Bit_const_iteratorSt13_Bit_iteratorEET0_T_S6_S5_
FNDA:113,_ZNSt11__copy_moveILb0ELb0ESt26random_access_iterator_tagE8__copy_mISt19_Bit_const_iteratorSt13_Bit_iteratorEET0_T_S6_S5_
FN:375,_ZNSt11__copy_moveILb0ELb0ESt26random_access_iterator_tagE8__copy_mIPKSt6vectorIiSaIiEEPS5_EET0_T_SA_S9_
FNDA:40000,_ZNSt11__copy_moveILb0ELb0ESt26random_access_iterator_tagE8__copy_mIPKSt6vectorIiSaIiEEPS5_EET0_T_SA_S9_
FN:415,_ZNSt11__copy_moveILb0ELb1ESt26random_access_iterator_tagE8__copy_mImEEPT_PKS3_S6_S4_
FNDA:113,_ZNSt11__copy_moveILb0ELb1ESt26random_access_iterator_tagE8__copy_mImEEPT_PKS3_S6_S4_
FN:415,_ZNSt11__copy_moveILb1ELb1ESt26random_access_iterator_tagE8__copy_mIiEEPT_PKS3_S6_S4_
FNDA:11,_ZNSt11__copy_moveILb1ELb1ESt26random_access_iterator_tagE8__copy_mIiEEPT_PKS3_S6_S4_
FN:415,_ZNSt11__copy_moveILb0ELb1ESt26random_access_iterator_tagE8__copy_mIiEEPT_PKS3_S6_S4_
FNDA:3953683,_ZNSt11__copy_moveILb0ELb1ESt26random_access_iterator_tagE8__copy_mIiEEPT_PKS3_S6_S4_
FN:415,_ZNSt11__copy_moveILb0ELb1ESt26random_access_iterator_tagE8__copy_mIPiEEPT_PKS4_S7_S5_
FNDA:0,_ZNSt11__copy_moveILb0ELb1ESt26random_access_iterator_tagE8__copy_mIPiEEPT_PKS4_S7_S5_
FN:415,_ZNSt11__copy_moveILb0ELb1ESt26random_access_iterator_tagE8__copy_mIdEEPT_PKS3_S6_S4_
FNDA:0,_ZNSt11__copy_moveILb0ELb1ESt26random_access_iterator_tagE8__copy_mIdEEPT_PKS3_S6_S4_
FN:463,_ZSt14__copy_move_a2ILb0ESt19_Bit_const_iteratorSt13_Bit_iteratorET1_T0_S3_S2_
FNDA:113,_ZSt14__copy_move_a2ILb0ESt19_Bit_const_iteratorSt13_Bit_iteratorET1_T0_S3_S2_
FN:463,_ZSt14__copy_move_a2ILb1EPiS0_ET1_T0_S2_S1_
FNDA:11,_ZSt14__copy_move_a2ILb1EPiS0_ET1_T0_S2_S1_
FN:463,_ZSt14__copy_move_a2ILb0EPmS0_ET1_T0_S2_S1_
FNDA:113,_ZSt14__copy_move_a2ILb0EPmS0_ET1_T0_S2_S1_
FN:463,_ZSt14__copy_move_a2ILb0EPiS0_ET1_T0_S2_S1_
FNDA:0,_ZSt14__copy_move_a2ILb0EPiS0_ET1_T0_S2_S1_
FN:463,_ZSt14__copy_move_a2ILb0EPKdPdET1_T0_S4_S3_
FNDA:0,_ZSt14__copy_move_a2ILb0EPKdPdET1_T0_S4_S3_
FN:463,_ZSt14__copy_move_a2ILb0EPKiPiET1_T0_S4_S3_
FNDA:3953683,_ZSt14__copy_move_a2ILb0EPKiPiET1_T0_S4_S3_
FN:463,_ZSt14__copy_move_a2ILb0EPSt6vectorIiSaIiEES3_ET1_T0_S5_S4_
FNDA:0,_ZSt14__copy_move_a2ILb0EPSt6vectorIiSaIiEES3_ET1_T0_S5_S4_
FN:463,_ZSt14__copy_move_a2ILb0EPKSt6vectorIiSaIiEEPS2_ET1_T0_S7_S6_
FNDA:40000,_ZSt14__copy_move_a2ILb0EPKSt6vectorIiSaIiEEPS2_ET1_T0_S7_S6_
FN:463,_ZSt14__copy_move_a2ILb0EPPiS1_ET1_T0_S3_S2_
FNDA:0,_ZSt14__copy_move_a2ILb0EPPiS1_ET1_T0_S3_S2_
FN:505,_ZSt14__copy_move_a1ILb1EPiS0_ET1_T0_S2_S1_
FNDA:11,_ZSt14__copy_move_a1ILb1EPiS0_ET1_T0_S2_S1_
FN:505,_ZSt14__copy_move_a1ILb0EPKiPiET1_T0_S4_S3_
FNDA:3953683,_ZSt14__copy_move_a1ILb0EPKiPiET1_T0_S4_S3_
FN:505,_ZSt14__copy_move_a1ILb0EPiS0_ET1_T0_S2_S1_
FNDA:0,_ZSt14__copy_move_a1ILb0EPiS0_ET1_T0_S2_S1_
FN:505,_ZSt14__copy_move_a1ILb0ESt19_Bit_const_iteratorSt13_Bit_iteratorET1_T0_S3_S2_
FNDA:113,_ZSt14__copy_move_a1ILb0ESt19_Bit_const_iteratorSt13_Bit_iteratorET1_T0_S3_S2_
FN:505,_ZSt14__copy_move_a1ILb0EPPiS1_ET1_T0_S3_S2_
FNDA:0,_ZSt14__copy_move_a1ILb0EPPiS1_ET1_T0_S3_S2_
FN:505,_ZSt14__copy_move_a1ILb0EPKdPdET1_T0_S4_S3_
FNDA:3000015,_ZSt14__copy_move_a1ILb0EPKdPdET1_T0_S4_S3_
FN:505,_ZSt14__copy_move_a1ILb0EPmS0_ET1_T0_S2_S1_
FNDA:113,_ZSt14__copy_move_a1ILb0EPmS0_ET1_T0_S2_S1_
FN:505,_ZSt14__copy_move_a1ILb0EPSt6vectorIiSaIiEES3_ET1_T0_S5_S4_
FNDA:0,_ZSt14__copy_move_a1ILb0EPSt6vectorIiSaIiEES3_ET1_T0_S5_S4_
FN:505,_ZSt14__copy_move_a1ILb0EPKSt6vectorIiSaIiEEPS2_ET1_T0_S7_S6_
FNDA:40000,_ZSt14__copy_move_a1ILb0EPKSt6vectorIiSaIiEEPS2_ET1_T0_S7_S6_
FN:511,_ZSt13__copy_move_aILb0EN9__gnu_cxx17__normal_iteratorIPKiSt6vectorIiSaIiEEEEPiET1_T0_SA_S9_
FNDA:3653459,_ZSt13__copy_move_aILb0EN9__gnu_cxx17__normal_iteratorIPKiSt6vectorIiSaIiEEEEPiET1_T0_SA_S9_
FN:511,_ZSt13__copy_move_aILb1EN9__gnu_cxx17__normal_iteratorIPiSt6vectorIiSaIiEEEES2_ET1_T0_S8_S7_
FNDA:11,_ZSt13__copy_move_aILb1EN9__gnu_cxx17__normal_iteratorIPiSt6vectorIiSaIiEEEES2_ET1_T0_S8_S7_
FN:511,_ZSt13__copy_move_aILb0EPmS0_ET1_T0_S2_S1_
FNDA:113,_ZSt13__copy_move_aILb0EPmS0_ET1_T0_S2_S1_
FN:511,_ZSt13__copy_move_aILb0EPKiPiET1_T0_S4_S3_
FNDA:224,_ZSt13__copy_move_aILb0EPKiPiET1_T0_S4_S3_
FN:511,_ZSt13__copy_move_aILb0EPSt6vectorIiSaIiEES3_ET1_T0_S5_S4_
FNDA:0,_ZSt13__copy_move_aILb0EPSt6vectorIiSaIiEES3_ET1_T0_S5_S4_
FN:511,_ZSt13__copy_move_aILb0EN9__gnu_cxx17__normal_iteratorIPKSt6vectorIiSaIiEES2_IS4_SaIS4_EEEENS1_IPS4_S8_EEET1_T0_SD_SC_
FNDA:40000,_ZSt13__copy_move_aILb0EN9__gnu_cxx17__normal_iteratorIPKSt6vectorIiSaIiEES2_IS4_SaIS4_EEEENS1_IPS4_S8_EEET1_T0_SD_SC_
FN:511,_ZSt13__copy_move_aILb0ESt19_Bit_const_iteratorSt13_Bit_iteratorET1_T0_S3_S2_
FNDA:113,_ZSt13__copy_move_aILb0ESt19_Bit_const_iteratorSt13_Bit_iteratorET1_T0_S3_S2_
FN:511,_ZSt13__copy_move_aILb0EN9__gnu_cxx17__normal_iteratorIPKdSt6vectorIdSaIdEEEEPdET1_T0_SA_S9_
FNDA:3000015,_ZSt13__copy_move_aILb0EN9__gnu_cxx17__normal_iteratorIPKdSt6vectorIdSaIdEEEEPdET1_T0_SA_S9_
FN:511,_ZSt13__copy_move_aILb0EN9__gnu_cxx17__normal_iteratorIPKiSt6vectorIiSaIiEEEENS1_IPiS6_EEET1_T0_SB_SA_
FNDA:300000,_ZSt13__copy_move_aILb0EN9__gnu_cxx17__normal_iteratorIPKiSt6vectorIiSaIiEEEENS1_IPiS6_EEET1_T0_SB_SA_
FN:511,_ZSt13__copy_move_aILb0EPiS0_ET1_T0_S2_S1_
FNDA:0,_ZSt13__copy_move_aILb0EPiS0_ET1_T0_S2_S1_
FN:511,_ZSt13__copy_move_aILb0EPPiS1_ET1_T0_S3_S2_
FNDA:0,_ZSt13__copy_move_aILb0EPPiS1_ET1_T0_S3_S2_
FN:560,_ZSt4copyISt19_Bit_const_iteratorSt13_Bit_iteratorET0_T_S3_S2_
FNDA:113,_ZSt4copyISt19_Bit_const_iteratorSt13_Bit_iteratorET0_T_S3_S2_
FN:560,_ZSt4copyIPiS0_ET0_T_S2_S1_
FNDA:0,_ZSt4copyIPiS0_ET0_T_S2_S1_
FN:560,_ZSt4copyIN9__gnu_cxx17__normal_iteratorIPKiSt6vectorIiSaIiEEEENS1_IPiS6_EEET0_T_SB_SA_
FNDA:300000,_ZSt4copyIN9__gnu_cxx17__normal_iteratorIPKiSt6vectorIiSaIiEEEENS1_IPiS6_EEET0_T_SB_SA_
FN:560,_ZSt4copyIPKiPiET0_T_S4_S3_
FNDA:224,_ZSt4copyIPKiPiET0_T_S4_S3_
FN:560,_ZSt4copyIN9__gnu_cxx17__normal_iteratorIPKiSt6vectorIiSaIiEEEEPiET0_T_SA_S9_
FNDA:3653459,_ZSt4copyIN9__gnu_cxx17__normal_iteratorIPKiSt6vectorIiSaIiEEEEPiET0_T_SA_S9_
FN:560,_ZSt4copyIN9__gnu_cxx17__normal_iteratorIPKSt6vectorIiSaIiEES2_IS4_SaIS4_EEEENS1_IPS4_S8_EEET0_T_SD_SC_
FNDA:40000,_ZSt4copyIN9__gnu_cxx17__normal_iteratorIPKSt6vectorIiSaIiEES2_IS4_SaIS4_EEEENS1_IPS4_S8_EEET0_T_SD_SC_
FN:560,_ZSt4copyIPSt6vectorIiSaIiEES3_ET0_T_S5_S4_
FNDA:0,_ZSt4copyIPSt6vectorIiSaIiEES3_ET0_T_S5_S4_
FN:560,_ZSt4copyIPmS0_ET0_T_S2_S1_
FNDA:113,_ZSt4copyIPmS0_ET0_T_S2_S1_
FN:560,_ZSt4copyIN9__gnu_cxx17__normal_iteratorIPKdSt6vectorIdSaIdEEEEPdET0_T_SA_S9_
FNDA:0,_ZSt4copyIN9__gnu_cxx17__normal_iteratorIPKdSt6vectorIdSaIdEEEEPdET0_T_SA_S9_
FN:560,_ZSt4copyIPPiS1_ET0_T_S3_S2_
FNDA:0,_ZSt4copyIPPiS1_ET0_T_S3_S2_
FN:560,_ZSt4copyISt13move_iteratorIN9__gnu_cxx17__normal_iteratorIPiSt6vectorIiSaIiEEEEES3_ET0_T_SA_S9_
FNDA:11,_ZSt4copyISt13move_iteratorIN9__gnu_cxx17__normal_iteratorIPiSt6vectorIiSaIiEEEEES3_ET0_T_SA_S9_
FN:663,_ZNSt20__copy_move_backwardILb1ELb0ESt26random_access_iterator_tagE13__copy_move_bIPSt6vectorIiSaIiEES6_EET0_T_S8_S7_
FNDA:0,_ZNSt20__copy_move_backwardILb1ELb0ESt26random_access_iterator_tagE13__copy_move_bIPSt6vectorIiSaIiEES6_EET0_T_S8_S7_
FN:680,_ZNSt20__copy_move_backwardILb0ELb1ESt26random_access_iterator_tagE13__copy_move_bIPiEEPT_PKS4_S7_S5_
FNDA:0,_ZNSt20__copy_move_backwardILb0ELb1ESt26random_access_iterator_tagE13__copy_move_bIPiEEPT_PKS4_S7_S5_
FN:699,_ZSt23__copy_move_backward_a2ILb0EPPiS1_ET1_T0_S3_S2_
FNDA:0,_ZSt23__copy_move_backward_a2ILb0EPPiS1_ET1_T0_S3_S2_
FN:699,_ZSt23__copy_move_backward_a2ILb1EPSt6vectorIiSaIiEES3_ET1_T0_S5_S4_
FNDA:0,_ZSt23__copy_move_backward_a2ILb1EPSt6vectorIiSaIiEES3_ET1_T0_S5_S4_
FN:717,_ZSt23__copy_move_backward_a1ILb1EPSt6vectorIiSaIiEES3_ET1_T0_S5_S4_
FNDA:0,_ZSt23__copy_move_backward_a1ILb1EPSt6vectorIiSaIiEES3_ET1_T0_S5_S4_
FN:717,_ZSt23__copy_move_backward_a1ILb0EPPiS1_ET1_T0_S3_S2_
FNDA:0,_ZSt23__copy_move_backward_a1ILb0EPPiS1_ET1_T0_S3_S2_
FN:745,_ZSt22__copy_move_backward_aILb0EPPiS1_ET1_T0_S3_S2_
FNDA:0,_ZSt22__copy_move_backward_aILb0EPPiS1_ET1_T0_S3_S2_
FN:745,_ZSt22__copy_move_backward_aILb1EPSt6vectorIiSaIiEES3_ET1_T0_S5_S4_
FNDA:0,_ZSt22__copy_move_backward_aILb1EPSt6vectorIiSaIiEES3_ET1_T0_S5_S4_
FN:797,_ZSt13copy_backwardIPPiS1_ET0_T_S3_S2_
FNDA:0,_ZSt13copy_backwardIPPiS1_ET0_T_S3_S2_
FN:833,_ZSt13move_backwardIPSt6vectorIiSaIiEES3_ET0_T_S5_S4_
FNDA:0,_ZSt13move_backwardIPSt6vectorIiSaIiEES3_ET0_T_S5_S4_
FN:857,_ZSt9__fill_a1IPSt6vectorIiSaIiEES2_EN9__gnu_cxx11__enable_ifIXntsrSt11__is_scalarIT0_E7__valueEvE6__typeET_SB_RKS7_
FNDA:0,_ZSt9__fill_a1IPSt6vectorIiSaIiEES2_EN9__gnu_cxx11__enable_ifIXntsrSt11__is_scalarIT0_E7__valueEvE6__typeET_SB_RKS7_
FN:868,_ZSt9__fill_a1IPiiEN9__gnu_cxx11__enable_ifIXsrSt11__is_scalarIT0_E7__valueEvE6__typeET_S8_RKS4_
FNDA:40089,_ZSt9__fill_a1IPiiEN9__gnu_cxx11__enable_ifIXsrSt11__is_scalarIT0_E7__valueEvE6__typeET_S8_RKS4_
FN:868,_ZSt9__fill_a1IPddEN9__gnu_cxx11__enable_ifIXsrSt11__is_scalarIT0_E7__valueEvE6__typeET_S8_RKS4_
FNDA:300002,_ZSt9__fill_a1IPddEN9__gnu_cxx11__enable_ifIXsrSt11__is_scalarIT0_E7__valueEvE6__typeET_S8_RKS4_
FN:913,_ZSt8__fill_aIPSt6vectorIiSaIiEES2_EvT_S4_RKT0_
FNDA:0,_ZSt8__fill_aIPSt6vectorIiSaIiEES2_EvT_S4_RKT0_
FN:913,_ZSt8__fill_aIPddEvT_S1_RKT0_
FNDA:0,_ZSt8__fill_aIPddEvT_S1_RKT0_
FN:913,_ZSt8__fill_aIPiiEvT_S1_RKT0_
FNDA:40089,_ZSt8__fill_aIPiiEvT_S1_RKT0_
FN:937,_ZSt4fillIPSt6vectorIiSaIiEES2_EvT_S4_RKT0_
FNDA:0,_ZSt4fillIPSt6vectorIiSaIiEES2_EvT_S4_RKT0_
FN:955,_ZSt17__size_to_integerm
FNDA:0,_ZSt17__size_to_integerm
FN:1054,_ZSt10__fill_n_aIPdmdET_S1_T0_RKT1_St26random_access_iterator_tag
FNDA:0,_ZSt10__fill_n_aIPdmdET_S1_T0_RKT1_St26random_access_iterator_tag
FN:1054,_ZSt10__fill_n_aIPimiET_S1_T0_RKT1_St26random_access_iterator_tag
FNDA:40089,_ZSt10__fill_n_aIPimiET_S1_T0_RKT1_St26random_access_iterator_tag
FN:1089,_ZSt6fill_nIPimiET_S1_T0_RKT1_
FNDA:40089,_ZSt6fill_nIPimiET_S1_T0_RKT1_
FN:1089,_ZSt6fill_nIPdmdET_S1_T0_RKT1_
FNDA:0,_ZSt6fill_nIPdmdET_S1_T0_RKT1_
FN:1104,_ZNSt7__equalILb0EE5equalIPKSt4pairIiiES5_EEbT_S6_T0_
FNDA:1,_ZNSt7__equalILb0EE5equalIPKSt4pairIiiES5_EEbT_S6_T0_
FN:1104,_ZNSt7__equalILb0EE5equalIPKSt6vectorIiSaIiEES6_EEbT_S7_T0_
FNDA:6,_ZNSt7__equalILb0EE5equalIPKSt6vectorIiSaIiEES6_EEbT_S7_T0_
FN:1119,_ZNSt7__equalILb1EE5equalIiEEbPKT_S4_S4_
FNDA:89,_ZNSt7__equalILb1EE5equalIiEEbPKT_S4_S4_
FN:1150,_ZSt12__equal_aux1IPKSt6vectorIiSaIiEES4_EbT_S5_T0_
FNDA:6,_ZSt12__equal_aux1IPKSt6vectorIiSaIiEES4_EbT_S5_T0_
FN:1150,_ZSt12__equal_aux1IPKiS1_EbT_S2_T0_
FNDA:89,_ZSt12__equal_aux1IPKiS1_EbT_S2_T0_
FN:1150,_ZSt12__equal_aux1IPKSt4pairIiiES3_EbT_S4_T0_
FNDA:1,_ZSt12__equal_aux1IPKSt4pairIiiES3_EbT_S4_T0_
FN:1162,_ZSt11__equal_auxIN9__gnu_cxx17__normal_iteratorIPKiSt6vectorIiSaIiEEEES7_EbT_S8_T0_
FNDA:89,_ZSt11__equal_auxIN9__gnu_cxx17__normal_iteratorIPKiSt6vectorIiSaIiEEEES7_EbT_S8_T0_
FN:1162,_ZSt11__equal_auxIN9__gnu_cxx17__normal_iteratorIPKSt4pairIiiESt6vectorIS3_SaIS3_EEEES9_EbT_SA_T0_
FNDA:1,_ZSt11__equal_auxIN9__gnu_cxx17__normal_iteratorIPKSt4pairIiiESt6vectorIS3_SaIS3_EEEES9_EbT_SA_T0_
FN:1162,_ZSt11__equal_auxIN9__gnu_cxx17__normal_iteratorIPKSt6vectorIiSaIiEES2_IS4_SaIS4_EEEES9_EbT_SA_T0_
FNDA:6,_ZSt11__equal_auxIN9__gnu_cxx17__normal_iteratorIPKSt6vectorIiSaIiEES2_IS4_SaIS4_EEEES9_EbT_SA_T0_
FN:1404,_ZSt5equalIN9__gnu_cxx17__normal_iteratorIPKiSt6vectorIiSaIiEEEES7_EbT_S8_T0_
FNDA:89,_ZSt5equalIN9__gnu_cxx17__normal_iteratorIPKiSt6vectorIiSaIiEEEES7_EbT_S8_T0_
FN:1404,_ZSt5equalIN9__gnu_cxx17__normal_iteratorIPKSt4pairIiiESt6vectorIS3_SaIS3_EEEES9_EbT_SA_T0_
FNDA:1,_ZSt5equalIN9__gnu_cxx17__normal_iteratorIPKSt4pairIiiESt6vectorIS3_SaIS3_EEEES9_EbT_SA_T0_
FN:1404,_ZSt5equalIN9__gnu_cxx17__normal_iteratorIPKSt6vectorIiSaIiEES2_IS4_SaIS4_EEEES9_EbT_SA_T0_
FNDA:6,_ZSt5equalIN9__gnu_cxx17__normal_iteratorIPKSt6vectorIiSaIiEES2_IS4_SaIS4_EEEES9_EbT_SA_T0_
FN:1921,_ZSt9__find_ifIN9__gnu_cxx17__normal_iteratorIPiSt6vectorIiSaIiEEEENS0_5__ops16_Iter_equals_valIKiEEET_SB_SB_T0_St26random_access_iterator_tag
FNDA:188,_ZSt9__find_ifIN9__gnu_cxx17__normal_iteratorIPiSt6vectorIiSaIiEEEENS0_5__ops16_Iter_equals_valIKiEEET_SB_SB_T0_St26random_access_iterator_tag
FN:1972,_ZSt9__find_ifIN9__gnu_cxx17__normal_iteratorIPiSt6vectorIiSaIiEEEENS0_5__ops16_Iter_equals_valIKiEEET_SB_SB_T0_
FNDA:188,_ZSt9__find_ifIN9__gnu_cxx17__normal_iteratorIPiSt6vectorIiSaIiEEEENS0_5__ops16_Iter_equals_valIKiEEET_SB_SB_T0_
FNF:106
FNH:63
DA:90,89
DA:105,89
DA:230,71192
DA:235,71192
DA:236,4755
DA:237,66437
DA:230,751102
DA:235,751102
DA:236,0
DA:237,751102
DA:254,177
DA:259,177
DA:260,20
DA:261,157
DA:254,0
DA:259,0
DA:260,0
DA:261,0
DA:313,0
DA:315,0
DA:313,396
DA:315,396
DA:313,3000015
DA:315,3000015
DA:313,0
DA:315,0
DA:313,448
DA:315,448
DA:313,113
DA:315,113
DA:313,226
DA:315,226
DA:313,0
DA:315,0
DA:313,1494
DA:315,1494
DA:323,300000
DA:324,300000
DA:323,40000
DA:324,40000
DA:330,0
DA:331,0
DA:330,0
DA:331,0
DA:330,0
DA:331,0
DA:330,113
DA:331,113
DA:330,0
DA:331,0
DA:330,0
DA:331,0
DA:375,113
DA:378,4194
DA:380,4081
DA:381,4081
DA:382,4081
DA:384,113
DA:375,0
DA:378,0
DA:380,0
DA:381,0
DA:382,0
DA:384,0
DA:375,40000
DA:378,340000
DA:380,300000
DA:381,300000
DA:382,300000
DA:384,40000
DA:415,11
DA:424,11
DA:425,11
DA:426,11
DA:427,11
DA:415,0
DA:424,0
DA:425,0
DA:426,0
DA:427,0
DA:415,0
DA:424,0
DA:425,0
DA:426,0
DA:427,0
DA:415,3953683
DA:424,3953683
DA:425,3953683
DA:426,3953628
DA:427,3953683
DA:415,113
DA:424,113
DA:425,113
DA:426,0
DA:427,113
DA:463,11
DA:472,11
DA:463,0
DA:472,0
DA:463,0
DA:472,0
DA:463,0
DA:472,0
DA:463,3953683
DA:472,3953683
DA:463,113
DA:472,113
DA:463,113
DA:472,113
DA:463,0
DA:472,0
DA:463,40000
DA:472,40000
DA:505,11
DA:506,11
DA:505,0
DA:506,0
DA:505,0
DA:506,0
DA:505,3000015
DA:506,3000015
DA:505,3953683
DA:506,3953683
DA:505,113
DA:506,113
DA:505,113
DA:506,113
DA:505,0
DA:506,0
DA:505,40000
DA:506,40000
DA:511,11
DA:513,11
DA:516,11
DA:511,0
DA:513,0
DA:516,0
DA:511,300000
DA:513,300000
DA:516,300000
DA:511,0
DA:513,0
DA:516,0
DA:511,3000015
DA:513,3000015
DA:516,3000015
DA:511,3653459
DA:513,3653459
DA:516,3653459
DA:511,224
DA:513,224
DA:516,224
DA:511,113
DA:513,113
DA:516,113
DA:511,113
DA:513,113
DA:516,113
DA:511,0
DA:513,0
DA:516,0
DA:511,40000
DA:513,40000
DA:516,40000
DA:560,11
DA:569,11
DA:560,0
DA:569,0
DA:560,300000
DA:569,300000
DA:560,0
DA:569,0
DA:560,0
DA:569,0
DA:560,3653459
DA:569,3653459
DA:560,224
DA:569,224
DA:560,113
DA:569,113
DA:560,113
DA:569,113
DA:560,0
DA:569,0
DA:560,40000
DA:569,40000
DA:663,0
DA:666,0
DA:667,0
DA:668,0
DA:669,0
DA:680,0
DA:689,0
DA:690,0
DA:691,0
DA:692,0
DA:699,0
DA:709,0
DA:711,0
DA:699,0
DA:709,0
DA:711,0
DA:717,0
DA:718,0
DA:717,0
DA:718,0
DA:745,0
DA:747,0
DA:750,0
DA:745,0
DA:747,0
DA:750,0
DA:797,0
DA:808,0
DA:833,0
DA:843,0
DA:845,0
DA:857,0
DA:860,0
DA:861,0
DA:862,0
DA:868,300002
DA:871,300002
DA:872,3040017
DA:873,2740015
DA:874,300002
DA:868,40089
DA:871,40089
DA:872,341355
DA:873,301266
DA:874,40089
DA:913,0
DA:914,0
DA:913,40089
DA:914,40089
DA:913,0
DA:914,0
DA:937,0
DA:944,0
DA:945,0
DA:955,0
DA:1054,0
DA:1060,0
DA:1061,0
DA:1065,0
DA:1066,0
DA:1054,40089
DA:1060,40089
DA:1061,0
DA:1065,40089
DA:1066,40089
DA:1089,0
DA:1094,0
DA:1095,0
DA:1089,40089
DA:1094,40089
DA:1095,80178
DA:1104,7
DA:1106,7
DA:1107,6
DA:1108,0
DA:1109,1
DA:1104,95
DA:1106,95
DA:1107,89
DA:1108,0
DA:1109,6
DA:1119,89
DA:1121,89
DA:1122,89
DA:1123,0
DA:1150,89
DA:1153,89
DA:1156,89
DA:1150,1
DA:1153,1
DA:1156,1
DA:1150,6
DA:1153,6
DA:1156,6
DA:1162,89
DA:1164,89
DA:1166,89
DA:1162,1
DA:1164,1
DA:1166,1
DA:1162,6
DA:1164,6
DA:1166,6
DA:1404,89
DA:1414,89
DA:1404,1
DA:1414,1
DA:1404,6
DA:1414,6
DA:1921,188
DA:1925,188
DA:1927,285
DA:1929,147
DA:1930,11
DA:1931,136
DA:1933,136
DA:1934,13
DA:1935,123
DA:1937,123
DA:1938,11
DA:1939,112
DA:1941,112
DA:1942,15
DA:1943,97
DA:1946,138
DA:1948,35
DA:1949,35
DA:1950,4
DA:1951,31
DA:1953,77
DA:1954,77
DA:1955,25
DA:1956,52
DA:1958,87
DA:1959,87
DA:1960,2
DA:1961,85
DA:1963,107
DA:1965,107
DA:1972,188
DA:1974,188
DA:1975,376
LF:328
LH:204
end_of_record
SF:/usr/local/include/c++/10.3.0/ext/type_traits.h
FN:152,_ZN9__gnu_cxx17__is_null_pointerIKcEEbPT_
FNDA:260423,_ZN9__gnu_cxx17__is_null_pointerIKcEEbPT_
FNF:1
FNH:1
DA:152,260423
DA:153,260423
LF:2
LH:2
end_of_record
SF:/Users/qylenett/Desktop/navigator/SimpleNavigator-v1.0/src/s21_algorithms/s21_graph_algorithms.h
LF:0
LH:0
end_of_record
SF:/Users/qylenett/Desktop/navigator/SimpleNavigator-v1.0/src/tests/floid_uolsher_tests.cc
FN:17,_ZN3s2154Test_FloidWarshall_weighted_directed_graph_4_vert_TestC1Ev
FNDA:1,_ZN3s2154Test_FloidWarshall_weighted_directed_graph_4_vert_TestC1Ev
FN:17,_ZN3s2154Test_FloidWarshall_weighted_directed_graph_4_vert_Test8TestBodyEv
FNDA:1,_ZN3s2154Test_FloidWarshall_weighted_directed_graph_4_vert_Test8TestBodyEv
FN:17,_ZN3s2154Test_FloidWarshall_weighted_directed_graph_4_vert_TestD0Ev
FNDA:1,_ZN3s2154Test_FloidWarshall_weighted_directed_graph_4_vert_TestD0Ev
FN:17,_ZN3s2154Test_FloidWarshall_weighted_directed_graph_4_vert_TestD1Ev
FNDA:1,_ZN3s2154Test_FloidWarshall_weighted_directed_graph_4_vert_TestD1Ev
FN:33,_ZN3s2169GraphAlgorithmsTest_FloidWarshall_weighted_directed_graph_3_vert_TestC1Ev
FNDA:1,_ZN3s2169GraphAlgorithmsTest_FloidWarshall_weighted_directed_graph_3_vert_TestC1Ev
FN:33,_ZN3s2169GraphAlgorithmsTest_FloidWarshall_weighted_directed_graph_3_vert_Test8TestBodyEv
FNDA:1,_ZN3s2169GraphAlgorithmsTest_FloidWarshall_weighted_directed_graph_3_vert_Test8TestBodyEv
FN:33,_ZN3s2169GraphAlgorithmsTest_FloidWarshall_weighted_directed_graph_3_vert_TestD1Ev
FNDA:1,_ZN3s2169GraphAlgorithmsTest_FloidWarshall_weighted_directed_graph_3_vert_TestD1Ev
FN:33,_ZN3s2169GraphAlgorithmsTest_FloidWarshall_weighted_directed_graph_3_vert_TestD0Ev
FNDA:1,_ZN3s2169GraphAlgorithmsTest_FloidWarshall_weighted_directed_graph_3_vert_TestD0Ev
FN:44,_ZN3s2169GraphAlgorithmsTest_FloidWarshall_weighted_directed_graph_8_vert_TestD0Ev
FNDA:1,_ZN3s2169GraphAlgorithmsTest_FloidWarshall_weighted_directed_graph_8_vert_TestD0Ev
FN:44,_ZN3s2169GraphAlgorithmsTest_FloidWarshall_weighted_directed_graph_8_vert_TestD1Ev
FNDA:1,_ZN3s2169GraphAlgorithmsTest_FloidWarshall_weighted_directed_graph_8_vert_TestD1Ev
FN:44,_ZN3s2169GraphAlgorithmsTest_FloidWarshall_weighted_directed_graph_8_vert_Test8TestBodyEv
FNDA:1,_ZN3s2169GraphAlgorithmsTest_FloidWarshall_weighted_directed_graph_8_vert_Test8TestBodyEv
FN:44,_ZN3s2169GraphAlgorithmsTest_FloidWarshall_weighted_directed_graph_8_vert_TestC1Ev
FNDA:1,_ZN3s2169GraphAlgorithmsTest_FloidWarshall_weighted_directed_graph_8_vert_TestC1Ev
FN:59,_ZN3s2159GraphAlgorithmsTest_FloidWarshall_graph_21_vert_direct_TestD0Ev
FNDA:1,_ZN3s2159GraphAlgorithmsTest_FloidWarshall_graph_21_vert_direct_TestD0Ev
FN:59,_ZN3s2159GraphAlgorithmsTest_FloidWarshall_graph_21_vert_direct_TestD1Ev
FNDA:1,_ZN3s2159GraphAlgorithmsTest_FloidWarshall_graph_21_vert_direct_TestD1Ev
FN:59,_ZN3s2159GraphAlgorithmsTest_FloidWarshall_graph_21_vert_direct_Test8TestBodyEv
FNDA:1,_ZN3s2159GraphAlgorithmsTest_FloidWarshall_graph_21_vert_direct_Test8TestBodyEv
FN:59,_ZN3s2159GraphAlgorithmsTest_FloidWarshall_graph_21_vert_direct_TestC1Ev
FNDA:1,_ZN3s2159GraphAlgorithmsTest_FloidWarshall_graph_21_vert_direct_TestC1Ev
FN:91,_ZN3s2153GraphAlgorithmsTest_FloidWarshall_very_big_graph_TestC1Ev
FNDA:1,_ZN3s2153GraphAlgorithmsTest_FloidWarshall_very_big_graph_TestC1Ev
FN:91,_ZN3s2153GraphAlgorithmsTest_FloidWarshall_very_big_graph_TestD0Ev
FNDA:1,_ZN3s2153GraphAlgorithmsTest_FloidWarshall_very_big_graph_TestD0Ev
FN:91,_ZN3s2153GraphAlgorithmsTest_FloidWarshall_very_big_graph_TestD1Ev
FNDA:1,_ZN3s2153GraphAlgorithmsTest_FloidWarshall_very_big_graph_TestD1Ev
FN:91,_ZN3s2153GraphAlgorithmsTest_FloidWarshall_very_big_graph_Test8TestBodyEv
FNDA:1,_ZN3s2153GraphAlgorithmsTest_FloidWarshall_very_big_graph_Test8TestBodyEv
FNF:20
FNH:20
DA:17,1
DA:17,1
DA:17,1
DA:17,1
DA:18,1
DA:19,1
DA:20,1
DA:21,1
DA:23,1
DA:29,7
DA:30,1
DA:33,1
DA:33,1
DA:33,1
DA:33,1
DA:34,1
DA:35,1
DA:36,1
DA:37,1
DA:39,1
DA:40,6
DA:41,1
DA:44,1
DA:44,1
DA:44,1
DA:44,1
DA:45,1
DA:46,1
DA:47,1
DA:48,1
DA:50,1
DA:55,11
DA:56,1
DA:59,1
DA:59,1
DA:59,1
DA:59,1
DA:60,1
DA:61,1
DA:62,1
DA:63,1
DA:65,1
DA:87,24
DA:88,1
DA:91,1
DA:91,1
DA:91,1
DA:91,1
DA:92,1
DA:93,1
DA:94,1
DA:95,1
DA:97,1
DA:254,53
DA:255,1
LF:55
LH:55
end_of_record
SF:/usr/local/include/c++/10.3.0/bits/stl_function.h
FN:385,_ZNKSt4lessISt4pairIiiEEclERKS1_S4_
FNDA:2011,_ZNKSt4lessISt4pairIiiEEclERKS1_S4_
FNF:1
FNH:1
DA:385,2011
DA:386,2011
LF:2
LH:2
end_of_record
SF:/usr/local/include/c++/10.3.0/bits/stl_vector.h
FN:97,_ZNSt12_Vector_baseISt6vectorIiSaIiEESaIS2_EE17_Vector_impl_dataC2Ev
FNDA:420544,_ZNSt12_Vector_baseISt6vectorIiSaIiEESaIS2_EE17_Vector_impl_dataC2Ev
FN:97,_ZNSt12_Vector_baseISt6vectorIiSaIiEESaIS2_EE17_Vector_impl_dataC1Ev
FNDA:10,_ZNSt12_Vector_baseISt6vectorIiSaIiEESaIS2_EE17_Vector_impl_dataC1Ev
FN:97,_ZNSt12_Vector_baseIdSaIdEE17_Vector_impl_dataC2Ev
FNDA:0,_ZNSt12_Vector_baseIdSaIdEE17_Vector_impl_dataC2Ev
FN:97,_ZNSt12_Vector_baseISt4pairIiiESaIS1_EE17_Vector_impl_dataC2Ev
FNDA:81,_ZNSt12_Vector_baseISt4pairIiiESaIS1_EE17_Vector_impl_dataC2Ev
FN:97,_ZNSt12_Vector_baseISt6vectorIdSaIdEESaIS2_EE17_Vector_impl_dataC2Ev
FNDA:300002,_ZNSt12_Vector_baseISt6vectorIdSaIdEESaIS2_EE17_Vector_impl_dataC2Ev
FN:97,_ZNSt12_Vector_baseIiSaIiEE17_Vector_impl_dataC2Ev
FNDA:3734972,_ZNSt12_Vector_baseIiSaIiEE17_Vector_impl_dataC2Ev
FN:97,_ZNSt12_Vector_baseIiSaIiEE17_Vector_impl_dataC1Ev
FNDA:105,_ZNSt12_Vector_baseIiSaIiEE17_Vector_impl_dataC1Ev
FN:102,_ZNSt12_Vector_baseIiSaIiEE17_Vector_impl_dataC2EOS2_
FNDA:1481,_ZNSt12_Vector_baseIiSaIiEE17_Vector_impl_dataC2EOS2_
FN:109,_ZNSt12_Vector_baseISt6vectorIiSaIiEESaIS2_EE17_Vector_impl_data12_M_copy_dataERKS5_
FNDA:30,_ZNSt12_Vector_baseISt6vectorIiSaIiEESaIS2_EE17_Vector_impl_data12_M_copy_dataERKS5_
FN:109,_ZNSt12_Vector_baseIiSaIiEE17_Vector_impl_data12_M_copy_dataERKS2_
FNDA:315,_ZNSt12_Vector_baseIiSaIiEE17_Vector_impl_data12_M_copy_dataERKS2_
FN:117,_ZNSt12_Vector_baseIiSaIiEE17_Vector_impl_data12_M_swap_dataERS2_
FNDA:105,_ZNSt12_Vector_baseIiSaIiEE17_Vector_impl_data12_M_swap_dataERS2_
FN:117,_ZNSt12_Vector_baseISt6vectorIiSaIiEESaIS2_EE17_Vector_impl_data12_M_swap_dataERS5_
FNDA:10,_ZNSt12_Vector_baseISt6vectorIiSaIiEESaIS2_EE17_Vector_impl_data12_M_swap_dataERS5_
FN:131,_ZNSt12_Vector_baseISt4pairIiiESaIS1_EE12_Vector_implC1Ev
FNDA:79,_ZNSt12_Vector_baseISt4pairIiiESaIS1_EE12_Vector_implC1Ev
FN:131,_ZNSt12_Vector_baseIiSaIiEE12_Vector_implC1Ev
FNDA:41197,_ZNSt12_Vector_baseIiSaIiEE12_Vector_implC1Ev
FN:131,_ZNSt12_Vector_baseISt6vectorIiSaIiEESaIS2_EE12_Vector_implC1Ev
FNDA:189,_ZNSt12_Vector_baseISt6vectorIiSaIiEESaIS2_EE12_Vector_implC1Ev
FN:136,_ZNSt12_Vector_baseIiSaIiEE12_Vector_implC1ERKS0_
FNDA:3693775,_ZNSt12_Vector_baseIiSaIiEE12_Vector_implC1ERKS0_
FN:136,_ZNSt12_Vector_baseISt4pairIiiESaIS1_EE12_Vector_implC1ERKS2_
FNDA:2,_ZNSt12_Vector_baseISt4pairIiiESaIS1_EE12_Vector_implC1ERKS2_
FN:136,_ZNSt12_Vector_baseISt6vectorIdSaIdEESaIS2_EE12_Vector_implC1ERKS3_
FNDA:0,_ZNSt12_Vector_baseISt6vectorIdSaIdEESaIS2_EE12_Vector_implC1ERKS3_
FN:136,_ZNSt12_Vector_baseIdSaIdEE12_Vector_implC1ERKS0_
FNDA:3300017,_ZNSt12_Vector_baseIdSaIdEE12_Vector_implC1ERKS0_
FN:136,_ZNSt12_Vector_baseISt6vectorIiSaIiEESaIS2_EE12_Vector_implC1ERKS3_
FNDA:420355,_ZNSt12_Vector_baseISt6vectorIiSaIiEESaIS2_EE12_Vector_implC1ERKS3_
FN:143,_ZNSt12_Vector_baseIiSaIiEE12_Vector_implC1EOS2_
FNDA:1481,_ZNSt12_Vector_baseIiSaIiEE12_Vector_implC1EOS2_
FN:276,_ZNSt12_Vector_baseISt6vectorIiSaIiEESaIS2_EE19_M_get_Tp_allocatorEv
FNDA:881633,_ZNSt12_Vector_baseISt6vectorIiSaIiEESaIS2_EE19_M_get_Tp_allocatorEv
FN:276,_ZNSt12_Vector_baseISt6vectorIdSaIdEESaIS2_EE19_M_get_Tp_allocatorEv
FNDA:600004,_ZNSt12_Vector_baseISt6vectorIdSaIdEESaIS2_EE19_M_get_Tp_allocatorEv
FN:276,_ZNSt12_Vector_baseISt4pairIiiESaIS1_EE19_M_get_Tp_allocatorEv
FNDA:216,_ZNSt12_Vector_baseISt4pairIiiESaIS1_EE19_M_get_Tp_allocatorEv
FN:276,_ZNSt12_Vector_baseIdSaIdEE19_M_get_Tp_allocatorEv
FNDA:0,_ZNSt12_Vector_baseIdSaIdEE19_M_get_Tp_allocatorEv
FN:276,_ZNSt12_Vector_baseIiSaIiEE19_M_get_Tp_allocatorEv
FNDA:8100520,_ZNSt12_Vector_baseIiSaIiEE19_M_get_Tp_allocatorEv
FN:280,_ZNKSt12_Vector_baseISt4pairIiiESaIS1_EE19_M_get_Tp_allocatorEv
FNDA:133,_ZNKSt12_Vector_baseISt4pairIiiESaIS1_EE19_M_get_Tp_allocatorEv
FN:280,_ZNKSt12_Vector_baseIiSaIiEE19_M_get_Tp_allocatorEv
FNDA:4023455,_ZNKSt12_Vector_baseIiSaIiEE19_M_get_Tp_allocatorEv
FN:280,_ZNKSt12_Vector_baseIdSaIdEE19_M_get_Tp_allocatorEv
FNDA:0,_ZNKSt12_Vector_baseIdSaIdEE19_M_get_Tp_allocatorEv
FN:280,_ZNKSt12_Vector_baseISt6vectorIdSaIdEESaIS2_EE19_M_get_Tp_allocatorEv
FNDA:300000,_ZNKSt12_Vector_baseISt6vectorIdSaIdEESaIS2_EE19_M_get_Tp_allocatorEv
FN:280,_ZNKSt12_Vector_baseISt6vectorIiSaIiEESaIS2_EE19_M_get_Tp_allocatorEv
FNDA:380895,_ZNKSt12_Vector_baseISt6vectorIiSaIiEESaIS2_EE19_M_get_Tp_allocatorEv
FN:284,_ZNKSt12_Vector_baseISt6vectorIiSaIiEESaIS2_EE13get_allocatorEv
FNDA:5,_ZNKSt12_Vector_baseISt6vectorIiSaIiEESaIS2_EE13get_allocatorEv
FN:284,_ZNKSt12_Vector_baseIiSaIiEE13get_allocatorEv
FNDA:58,_ZNKSt12_Vector_baseIiSaIiEE13get_allocatorEv
FN:288,_ZNSt12_Vector_baseISt6vectorIiSaIiEESaIS2_EEC2Ev
FNDA:189,_ZNSt12_Vector_baseISt6vectorIiSaIiEESaIS2_EEC2Ev
FN:288,_ZNSt12_Vector_baseISt4pairIiiESaIS1_EEC2Ev
FNDA:79,_ZNSt12_Vector_baseISt4pairIiiESaIS1_EEC2Ev
FN:288,_ZNSt12_Vector_baseIiSaIiEEC2Ev
FNDA:0,_ZNSt12_Vector_baseIiSaIiEEC2Ev
FN:293,_ZNSt12_Vector_baseISt4pairIiiESaIS1_EEC2ERKS2_
FNDA:1,_ZNSt12_Vector_baseISt4pairIiiESaIS1_EEC2ERKS2_
FN:293,_ZNSt12_Vector_baseISt6vectorIiSaIiEESaIS2_EEC2ERKS3_
FNDA:16,_ZNSt12_Vector_baseISt6vectorIiSaIiEESaIS2_EEC2ERKS3_
FN:293,_ZNSt12_Vector_baseIiSaIiEEC2ERKS0_
FNDA:227,_ZNSt12_Vector_baseIiSaIiEEC2ERKS0_
FN:303,_ZNSt12_Vector_baseISt6vectorIdSaIdEESaIS2_EEC2EmRKS3_
FNDA:0,_ZNSt12_Vector_baseISt6vectorIdSaIdEESaIS2_EEC2EmRKS3_
FN:303,_ZNSt12_Vector_baseIiSaIiEEC2EmRKS0_
FNDA:3693548,_ZNSt12_Vector_baseIiSaIiEEC2EmRKS0_
FN:303,_ZNSt12_Vector_baseIdSaIdEEC2EmRKS0_
FNDA:0,_ZNSt12_Vector_baseIdSaIdEEC2EmRKS0_
FN:303,_ZNSt12_Vector_baseISt6vectorIiSaIiEESaIS2_EEC2EmRKS3_
FNDA:420339,_ZNSt12_Vector_baseISt6vectorIiSaIiEESaIS2_EEC2EmRKS3_
FN:303,_ZNSt12_Vector_baseISt4pairIiiESaIS1_EEC2EmRKS2_
FNDA:1,_ZNSt12_Vector_baseISt4pairIiiESaIS1_EEC2EmRKS2_
FN:308,_ZNSt12_Vector_baseIiSaIiEEC2EOS1_
FNDA:1481,_ZNSt12_Vector_baseIiSaIiEEC2EOS1_
FN:333,_ZNSt12_Vector_baseISt6vectorIiSaIiEESaIS2_EED2Ev
FNDA:420544,_ZNSt12_Vector_baseISt6vectorIiSaIiEESaIS2_EED2Ev
FN:333,_ZNSt12_Vector_baseIiSaIiEED2Ev
FNDA:3736448,_ZNSt12_Vector_baseIiSaIiEED2Ev
FN:333,_ZNSt12_Vector_baseISt4pairIiiESaIS1_EED2Ev
FNDA:81,_ZNSt12_Vector_baseISt4pairIiiESaIS1_EED2Ev
FN:333,_ZNSt12_Vector_baseIdSaIdEED2Ev
FNDA:3300017,_ZNSt12_Vector_baseIdSaIdEED2Ev
FN:333,_ZNSt12_Vector_baseISt6vectorIdSaIdEESaIS2_EED2Ev
FNDA:300002,_ZNSt12_Vector_baseISt6vectorIdSaIdEESaIS2_EED2Ev
FN:343,_ZNSt12_Vector_baseISt4pairIiiESaIS1_EE11_M_allocateEm
FNDA:68,_ZNSt12_Vector_baseISt4pairIiiESaIS1_EE11_M_allocateEm
FN:343,_ZNSt12_Vector_baseISt6vectorIiSaIiEESaIS2_EE11_M_allocateEm
FNDA:420654,_ZNSt12_Vector_baseISt6vectorIiSaIiEESaIS2_EE11_M_allocateEm
FN:343,_ZNSt12_Vector_baseISt6vectorIdSaIdEESaIS2_EE11_M_allocateEm
FNDA:0,_ZNSt12_Vector_baseISt6vectorIdSaIdEESaIS2_EE11_M_allocateEm
FN:343,_ZNSt12_Vector_baseIiSaIiEE11_M_allocateEm
FNDA:0,_ZNSt12_Vector_baseIiSaIiEE11_M_allocateEm
FN:343,_ZNSt12_Vector_baseIdSaIdEE11_M_allocateEm
FNDA:3300017,_ZNSt12_Vector_baseIdSaIdEE11_M_allocateEm
FN:350,_ZNSt12_Vector_baseIdSaIdEE13_M_deallocateEPdm
FNDA:3300017,_ZNSt12_Vector_baseIdSaIdEE13_M_deallocateEPdm
FN:350,_ZNSt12_Vector_baseISt6vectorIiSaIiEESaIS2_EE13_M_deallocateEPS2_m
FNDA:420848,_ZNSt12_Vector_baseISt6vectorIiSaIiEESaIS2_EE13_M_deallocateEPS2_m
FN:350,_ZNSt12_Vector_baseISt6vectorIdSaIdEESaIS2_EE13_M_deallocateEPS2_m
FNDA:300002,_ZNSt12_Vector_baseISt6vectorIdSaIdEESaIS2_EE13_M_deallocateEPS2_m
FN:350,_ZNSt12_Vector_baseISt4pairIiiESaIS1_EE13_M_deallocateEPS1_m
FNDA:147,_ZNSt12_Vector_baseISt4pairIiiESaIS1_EE13_M_deallocateEPS1_m
FN:350,_ZNSt12_Vector_baseIiSaIiEE13_M_deallocateEPim
FNDA:0,_ZNSt12_Vector_baseIiSaIiEE13_M_deallocateEPim
FN:359,_ZNSt12_Vector_baseIiSaIiEE17_M_create_storageEm
FNDA:3693548,_ZNSt12_Vector_baseIiSaIiEE17_M_create_storageEm
FN:359,_ZNSt12_Vector_baseISt4pairIiiESaIS1_EE17_M_create_storageEm
FNDA:1,_ZNSt12_Vector_baseISt4pairIiiESaIS1_EE17_M_create_storageEm
FN:359,_ZNSt12_Vector_baseISt6vectorIdSaIdEESaIS2_EE17_M_create_storageEm
FNDA:300002,_ZNSt12_Vector_baseISt6vectorIdSaIdEESaIS2_EE17_M_create_storageEm
FN:359,_ZNSt12_Vector_baseIdSaIdEE17_M_create_storageEm
FNDA:0,_ZNSt12_Vector_baseIdSaIdEE17_M_create_storageEm
FN:359,_ZNSt12_Vector_baseISt6vectorIiSaIiEESaIS2_EE17_M_create_storageEm
FNDA:420339,_ZNSt12_Vector_baseISt6vectorIiSaIiEESaIS2_EE17_M_create_storageEm
FN:453,_ZNSt6vectorIS_IiSaIiEESaIS1_EE14_S_do_relocateEPS1_S4_S4_RS2_St17integral_constantIbLb1EE
FNDA:498,_ZNSt6vectorIS_IiSaIiEESaIS1_EE14_S_do_relocateEPS1_S4_S4_RS2_St17integral_constantIbLb1EE
FN:453,_ZNSt6vectorIiSaIiEE14_S_do_relocateEPiS2_S2_RS0_St17integral_constantIbLb1EE
FNDA:0,_ZNSt6vectorIiSaIiEE14_S_do_relocateEPiS2_S2_RS0_St17integral_constantIbLb1EE
FN:453,_ZNSt6vectorISt4pairIiiESaIS1_EE14_S_do_relocateEPS1_S4_S4_RS2_St17integral_constantIbLb1EE
FNDA:132,_ZNSt6vectorISt4pairIiiESaIS1_EE14_S_do_relocateEPS1_S4_S4_RS2_St17integral_constantIbLb1EE
FN:465,_ZNSt6vectorISt4pairIiiESaIS1_EE11_S_relocateEPS1_S4_S4_RS2_
FNDA:132,_ZNSt6vectorISt4pairIiiESaIS1_EE11_S_relocateEPS1_S4_S4_RS2_
FN:465,_ZNSt6vectorIiSaIiEE11_S_relocateEPiS2_S2_RS0_
FNDA:369938,_ZNSt6vectorIiSaIiEE11_S_relocateEPiS2_S2_RS0_
FN:465,_ZNSt6vectorIS_IiSaIiEESaIS1_EE11_S_relocateEPS1_S4_S4_RS2_
FNDA:498,_ZNSt6vectorIS_IiSaIiEESaIS1_EE11_S_relocateEPS1_S4_S4_RS2_
FN:487,_ZNSt6vectorIiSaIiEEC1Ev
FNDA:0,_ZNSt6vectorIiSaIiEEC1Ev
FN:487,_ZNSt6vectorISt4pairIiiESaIS1_EEC1Ev
FNDA:79,_ZNSt6vectorISt4pairIiiESaIS1_EEC1Ev
FN:487,_ZNSt6vectorIS_IiSaIiEESaIS1_EEC1Ev
FNDA:189,_ZNSt6vectorIS_IiSaIiEESaIS1_EEC1Ev
FN:497,_ZNSt6vectorIiSaIiEEC1ERKS0_
FNDA:47,_ZNSt6vectorIiSaIiEEC1ERKS0_
FN:497,_ZNSt6vectorIS_IiSaIiEESaIS1_EEC1ERKS2_
FNDA:5,_ZNSt6vectorIS_IiSaIiEESaIS1_EEC1ERKS2_
FN:510,_ZNSt6vectorIS_IiSaIiEESaIS1_EEC1EmRKS2_
FNDA:42,_ZNSt6vectorIS_IiSaIiEESaIS1_EEC1EmRKS2_
FN:510,_ZNSt6vectorIiSaIiEEC1EmRKS0_
FNDA:61,_ZNSt6vectorIiSaIiEEC1EmRKS0_
FN:522,_ZNSt6vectorIS_IdSaIdEESaIS1_EEC1EmRKS1_RKS2_
FNDA:2,_ZNSt6vectorIS_IdSaIdEESaIS1_EEC1EmRKS1_RKS2_
FN:522,_ZNSt6vectorIS_IiSaIiEESaIS1_EEC1EmRKS1_RKS2_
FNDA:40015,_ZNSt6vectorIS_IiSaIiEESaIS1_EEC1EmRKS1_RKS2_
FN:522,_ZNSt6vectorIdSaIdEEC1EmRKdRKS0_
FNDA:300002,_ZNSt6vectorIdSaIdEEC1EmRKdRKS0_
FN:522,_ZNSt6vectorIiSaIiEEC1EmRKiRKS0_
FNDA:40031,_ZNSt6vectorIiSaIiEEC1EmRKiRKS0_
FN:553,_ZNSt6vectorIS_IdSaIdEESaIS1_EEC1ERKS3_
FNDA:300000,_ZNSt6vectorIS_IdSaIdEESaIS1_EEC1ERKS3_
FN:553,_ZNSt6vectorISt4pairIiiESaIS1_EEC1ERKS3_
FNDA:1,_ZNSt6vectorISt4pairIiiESaIS1_EEC1ERKS3_
FN:553,_ZNSt6vectorIdSaIdEEC1ERKS1_
FNDA:3000015,_ZNSt6vectorIdSaIdEEC1ERKS1_
FN:553,_ZNSt6vectorIiSaIiEEC1ERKS1_
FNDA:3653459,_ZNSt6vectorIiSaIiEEC1ERKS1_
FN:553,_ZNSt6vectorIS_IiSaIiEESaIS1_EEC1ERKS3_
FNDA:380282,_ZNSt6vectorIS_IiSaIiEESaIS1_EEC1ERKS3_
FN:572,_ZNSt6vectorIiSaIiEEC1EOS1_
FNDA:1481,_ZNSt6vectorIiSaIiEEC1EOS1_
FN:625,_ZNSt6vectorISt4pairIiiESaIS1_EEC1ESt16initializer_listIS1_ERKS2_
FNDA:1,_ZNSt6vectorISt4pairIiiESaIS1_EEC1ESt16initializer_listIS1_ERKS2_
FN:625,_ZNSt6vectorIS_IiSaIiEESaIS1_EEC1ESt16initializer_listIS1_ERKS2_
FNDA:11,_ZNSt6vectorIS_IiSaIiEESaIS1_EEC1ESt16initializer_listIS1_ERKS2_
FN:625,_ZNSt6vectorIiSaIiEEC1ESt16initializer_listIiERKS0_
FNDA:169,_ZNSt6vectorIiSaIiEEC1ESt16initializer_listIiERKS0_
FN:653,_ZNSt6vectorIiSaIiEEC1ISt13move_iteratorIN9__gnu_cxx17__normal_iteratorIPiS1_EEEvEET_S9_RKS0_
FNDA:11,_ZNSt6vectorIiSaIiEEC1ISt13move_iteratorIN9__gnu_cxx17__normal_iteratorIPiS1_EEEvEET_S9_RKS0_
FN:678,_ZNSt6vectorIS_IiSaIiEESaIS1_EED1Ev
FNDA:420544,_ZNSt6vectorIS_IiSaIiEESaIS1_EED1Ev
FN:678,_ZNSt6vectorIiSaIiEED1Ev
FNDA:0,_ZNSt6vectorIiSaIiEED1Ev
FN:678,_ZNSt6vectorIS_IdSaIdEESaIS1_EED1Ev
FNDA:0,_ZNSt6vectorIS_IdSaIdEESaIS1_EED1Ev
FN:678,_ZNSt6vectorIdSaIdEED1Ev
FNDA:3300017,_ZNSt6vectorIdSaIdEED1Ev
FN:678,_ZNSt6vectorISt4pairIiiESaIS1_EED1Ev
FNDA:81,_ZNSt6vectorISt4pairIiiESaIS1_EED1Ev
FN:709,_ZNSt6vectorIS_IiSaIiEESaIS1_EEaSEOS3_
FNDA:5,_ZNSt6vectorIS_IiSaIiEESaIS1_EEaSEOS3_
FN:709,_ZNSt6vectorIiSaIiEEaSEOS1_
FNDA:47,_ZNSt6vectorIiSaIiEEaSEOS1_
FN:730,_ZNSt6vectorIiSaIiEEaSESt16initializer_listIiE
FNDA:34,_ZNSt6vectorIiSaIiEEaSESt16initializer_listIiE
FN:811,_ZNSt6vectorIS_IiSaIiEESaIS1_EE5beginEv
FNDA:40304,_ZNSt6vectorIS_IiSaIiEESaIS1_EE5beginEv
FN:811,_ZNSt6vectorISt4pairIiiESaIS1_EE5beginEv
FNDA:966,_ZNSt6vectorISt4pairIiiESaIS1_EE5beginEv
FN:811,_ZNSt6vectorIiSaIiEE5beginEv
FNDA:0,_ZNSt6vectorIiSaIiEE5beginEv
FN:820,_ZNKSt6vectorIdSaIdEE5beginEv
FNDA:3000015,_ZNKSt6vectorIdSaIdEE5beginEv
FN:820,_ZNKSt6vectorIS_IdSaIdEESaIS1_EE5beginEv
FNDA:300000,_ZNKSt6vectorIS_IdSaIdEESaIS1_EE5beginEv
FN:820,_ZNKSt6vectorIiSaIiEE5beginEv
FNDA:3953637,_ZNKSt6vectorIiSaIiEE5beginEv
FN:820,_ZNKSt6vectorIS_IiSaIiEESaIS1_EE5beginEv
FNDA:420294,_ZNKSt6vectorIS_IiSaIiEESaIS1_EE5beginEv
FN:820,_ZNKSt6vectorISt4pairIiiESaIS1_EE5beginEv
FNDA:1369,_ZNKSt6vectorISt4pairIiiESaIS1_EE5beginEv
FN:829,_ZNSt6vectorIiSaIiEE3endEv
FNDA:0,_ZNSt6vectorIiSaIiEE3endEv
FN:829,_ZNSt6vectorIS_IiSaIiEESaIS1_EE3endEv
FNDA:40971,_ZNSt6vectorIS_IiSaIiEESaIS1_EE3endEv
FN:829,_ZNSt6vectorISt4pairIiiESaIS1_EE3endEv
FNDA:1422,_ZNSt6vectorISt4pairIiiESaIS1_EE3endEv
FN:838,_ZNKSt6vectorIS_IdSaIdEESaIS1_EE3endEv
FNDA:300000,_ZNKSt6vectorIS_IdSaIdEESaIS1_EE3endEv
FN:838,_ZNKSt6vectorISt4pairIiiESaIS1_EE3endEv
FNDA:468,_ZNKSt6vectorISt4pairIiiESaIS1_EE3endEv
FN:838,_ZNKSt6vectorIdSaIdEE3endEv
FNDA:0,_ZNKSt6vectorIdSaIdEE3endEv
FN:838,_ZNKSt6vectorIiSaIiEE3endEv
FNDA:3953548,_ZNKSt6vectorIiSaIiEE3endEv
FN:838,_ZNKSt6vectorIS_IiSaIiEESaIS1_EE3endEv
FNDA:420288,_ZNKSt6vectorIS_IiSaIiEESaIS1_EE3endEv
FN:918,_ZNKSt6vectorISt4pairIiiESaIS1_EE4sizeEv
FNDA:267,_ZNKSt6vectorISt4pairIiiESaIS1_EE4sizeEv
FN:918,_ZNKSt6vectorIiSaIiEE4sizeEv
FNDA:5378435,_ZNKSt6vectorIiSaIiEE4sizeEv
FN:918,_ZNKSt6vectorIS_IiSaIiEESaIS1_EE4sizeEv
FNDA:3984527,_ZNKSt6vectorIS_IiSaIiEESaIS1_EE4sizeEv
FN:918,_ZNKSt6vectorIdSaIdEE4sizeEv
FNDA:0,_ZNKSt6vectorIdSaIdEE4sizeEv
FN:918,_ZNKSt6vectorIS_IdSaIdEESaIS1_EE4sizeEv
FNDA:0,_ZNKSt6vectorIS_IdSaIdEESaIS1_EE4sizeEv
FN:923,_ZNKSt6vectorIiSaIiEE8max_sizeEv
FNDA:0,_ZNKSt6vectorIiSaIiEE8max_sizeEv
FN:923,_ZNKSt6vectorIS_IiSaIiEESaIS1_EE8max_sizeEv
FNDA:608,_ZNKSt6vectorIS_IiSaIiEESaIS1_EE8max_sizeEv
FN:923,_ZNKSt6vectorISt4pairIiiESaIS1_EE8max_sizeEv
FNDA:132,_ZNKSt6vectorISt4pairIiiESaIS1_EE8max_sizeEv
FN:957,_ZNSt6vectorIS_IiSaIiEESaIS1_EE6resizeEmRKS1_
FNDA:58,_ZNSt6vectorIS_IiSaIiEESaIS1_EE6resizeEmRKS1_
FN:989,_ZNSt6vectorIiSaIiEE13shrink_to_fitEv
FNDA:13,_ZNSt6vectorIiSaIiEE13shrink_to_fitEv
FN:998,_ZNKSt6vectorIS_IiSaIiEESaIS1_EE8capacityEv
FNDA:40000,_ZNKSt6vectorIS_IiSaIiEESaIS1_EE8capacityEv
FN:998,_ZNKSt6vectorIiSaIiEE8capacityEv
FNDA:300047,_ZNKSt6vectorIiSaIiEE8capacityEv
FN:1007,_ZNKSt6vectorISt4pairIiiESaIS1_EE5emptyEv
FNDA:466,_ZNKSt6vectorISt4pairIiiESaIS1_EE5emptyEv
FN:1043,_ZNSt6vectorIS_IiSaIiEESaIS1_EEixEm
FNDA:18443315,_ZNSt6vectorIS_IiSaIiEESaIS1_EEixEm
FN:1043,_ZNSt6vectorIS_IdSaIdEESaIS1_EEixEm
FNDA:0,_ZNSt6vectorIS_IdSaIdEESaIS1_EEixEm
FN:1043,_ZNSt6vectorIiSaIiEEixEm
FNDA:0,_ZNSt6vectorIiSaIiEEixEm
FN:1043,_ZNSt6vectorIdSaIdEEixEm
FNDA:13170009,_ZNSt6vectorIdSaIdEEixEm
FN:1061,_ZNKSt6vectorIiSaIiEEixEm
FNDA:2865,_ZNKSt6vectorIiSaIiEEixEm
FN:1061,_ZNKSt6vectorIS_IiSaIiEESaIS1_EEixEm
FNDA:2798,_ZNKSt6vectorIS_IiSaIiEESaIS1_EEixEm
FN:1121,_ZNSt6vectorIiSaIiEE5frontEv
FNDA:200013,_ZNSt6vectorIiSaIiEE5frontEv
FN:1132,_ZNKSt6vectorISt4pairIiiESaIS1_EE5frontEv
FNDA:900,_ZNKSt6vectorISt4pairIiiESaIS1_EE5frontEv
FN:1143,_ZNSt6vectorISt4pairIiiESaIS1_EE4backEv
FNDA:456,_ZNSt6vectorISt4pairIiiESaIS1_EE4backEv
FN:1143,_ZNSt6vectorIiSaIiEE4backEv
FNDA:1281,_ZNSt6vectorIiSaIiEE4backEv
FN:1143,_ZNSt6vectorIS_IiSaIiEESaIS1_EE4backEv
FNDA:667,_ZNSt6vectorIS_IiSaIiEESaIS1_EE4backEv
FN:1187,_ZNSt6vectorIiSaIiEE9push_backERKi
FNDA:359018,_ZNSt6vectorIiSaIiEE9push_backERKi
FN:1203,_ZNSt6vectorIiSaIiEE9push_backEOi
FNDA:1281,_ZNSt6vectorIiSaIiEE9push_backEOi
FN:1203,_ZNSt6vectorISt4pairIiiESaIS1_EE9push_backEOS1_
FNDA:456,_ZNSt6vectorISt4pairIiiESaIS1_EE9push_backEOS1_
FN:1203,_ZNSt6vectorIS_IiSaIiEESaIS1_EE9push_backEOS1_
FNDA:667,_ZNSt6vectorIS_IiSaIiEESaIS1_EE9push_backEOS1_
FN:1225,_ZNSt6vectorISt4pairIiiESaIS1_EE8pop_backEv
FNDA:450,_ZNSt6vectorISt4pairIiiESaIS1_EE8pop_backEv
FN:1480,_ZNSt6vectorIiSaIiEE4swapERS1_
FNDA:11,_ZNSt6vectorIiSaIiEE4swapERS1_
FN:1498,_ZNSt6vectorIiSaIiEE5clearEv
FNDA:55,_ZNSt6vectorIiSaIiEE5clearEv
FN:1498,_ZNSt6vectorIS_IiSaIiEESaIS1_EE5clearEv
FNDA:0,_ZNSt6vectorIS_IiSaIiEESaIS1_EE5clearEv
FN:1508,_ZNSt6vectorIiSaIiEE20_M_allocate_and_copyIN9__gnu_cxx17__normal_iteratorIPKiS1_EEEEPimT_S9_
FNDA:0,_ZNSt6vectorIiSaIiEE20_M_allocate_and_copyIN9__gnu_cxx17__normal_iteratorIPKiS1_EEEEPimT_S9_
FN:1508,_ZNSt6vectorIS_IiSaIiEESaIS1_EE20_M_allocate_and_copyIN9__gnu_cxx17__normal_iteratorIPKS1_S3_EEEEPS1_mT_SB_
FNDA:0,_ZNSt6vectorIS_IiSaIiEESaIS1_EE20_M_allocate_and_copyIN9__gnu_cxx17__normal_iteratorIPKS1_S3_EEEEPS1_mT_SB_
FN:1508,_ZNSt6vectorIiSaIiEE20_M_allocate_and_copyIPKiEEPimT_S6_
FNDA:13,_ZNSt6vectorIiSaIiEE20_M_allocate_and_copyIPKiEEPimT_S6_
FN:1577,_ZNSt6vectorISt4pairIiiESaIS1_EE19_M_range_initializeIPKS1_EEvT_S7_St20forward_iterator_tag
FNDA:1,_ZNSt6vectorISt4pairIiiESaIS1_EE19_M_range_initializeIPKS1_EEvT_S7_St20forward_iterator_tag
FN:1577,_ZNSt6vectorIiSaIiEE19_M_range_initializeISt13move_iteratorIN9__gnu_cxx17__normal_iteratorIPiS1_EEEEEvT_S9_St20forward_iterator_tag
FNDA:11,_ZNSt6vectorIiSaIiEE19_M_range_initializeISt13move_iteratorIN9__gnu_cxx17__normal_iteratorIPiS1_EEEEEvT_S9_St20forward_iterator_tag
FN:1577,_ZNSt6vectorIS_IiSaIiEESaIS1_EE19_M_range_initializeIPKS1_EEvT_S7_St20forward_iterator_tag
FNDA:11,_ZNSt6vectorIS_IiSaIiEESaIS1_EE19_M_range_initializeIPKS1_EEvT_S7_St20forward_iterator_tag
FN:1577,_ZNSt6vectorIiSaIiEE19_M_range_initializeIPKiEEvT_S5_St20forward_iterator_tag
FNDA:169,_ZNSt6vectorIiSaIiEE19_M_range_initializeIPKiEEvT_S5_St20forward_iterator_tag
FN:1593,_ZNSt6vectorIiSaIiEE18_M_fill_initializeEmRKi
FNDA:40031,_ZNSt6vectorIiSaIiEE18_M_fill_initializeEmRKi
FN:1593,_ZNSt6vectorIS_IdSaIdEESaIS1_EE18_M_fill_initializeEmRKS1_
FNDA:0,_ZNSt6vectorIS_IdSaIdEESaIS1_EE18_M_fill_initializeEmRKS1_
FN:1593,_ZNSt6vectorIdSaIdEE18_M_fill_initializeEmRKd
FNDA:300002,_ZNSt6vectorIdSaIdEE18_M_fill_initializeEmRKd
FN:1593,_ZNSt6vectorIS_IiSaIiEESaIS1_EE18_M_fill_initializeEmRKS1_
FNDA:40015,_ZNSt6vectorIS_IiSaIiEESaIS1_EE18_M_fill_initializeEmRKS1_
FN:1603,_ZNSt6vectorIS_IiSaIiEESaIS1_EE21_M_default_initializeEm
FNDA:42,_ZNSt6vectorIS_IiSaIiEESaIS1_EE21_M_default_initializeEm
FN:1603,_ZNSt6vectorIiSaIiEE21_M_default_initializeEm
FNDA:58,_ZNSt6vectorIiSaIiEE21_M_default_initializeEm
FN:1709,_ZNSt6vectorIS_IiSaIiEESaIS1_EE16_Temporary_valueC1IJRKS1_EEEPS3_DpOT_
FNDA:0,_ZNSt6vectorIS_IiSaIiEESaIS1_EE16_Temporary_valueC1IJRKS1_EEEPS3_DpOT_
FN:1715,_ZNSt6vectorIS_IiSaIiEESaIS1_EE16_Temporary_valueD1Ev
FNDA:0,_ZNSt6vectorIS_IiSaIiEESaIS1_EE16_Temporary_valueD1Ev
FN:1719,_ZNSt6vectorIS_IiSaIiEESaIS1_EE16_Temporary_value6_M_valEv
FNDA:0,_ZNSt6vectorIS_IiSaIiEESaIS1_EE16_Temporary_value6_M_valEv
FN:1723,_ZNSt6vectorIS_IiSaIiEESaIS1_EE16_Temporary_value6_M_ptrEv
FNDA:0,_ZNSt6vectorIS_IiSaIiEESaIS1_EE16_Temporary_value6_M_ptrEv
FN:1756,_ZNKSt6vectorISt4pairIiiESaIS1_EE12_M_check_lenEmPKc
FNDA:66,_ZNKSt6vectorISt4pairIiiESaIS1_EE12_M_check_lenEmPKc
FN:1756,_ZNKSt6vectorIS_IiSaIiEESaIS1_EE12_M_check_lenEmPKc
FNDA:304,_ZNKSt6vectorIS_IiSaIiEESaIS1_EE12_M_check_lenEmPKc
FN:1756,_ZNKSt6vectorIiSaIiEE12_M_check_lenEmPKc
FNDA:0,_ZNKSt6vectorIiSaIiEE12_M_check_lenEmPKc
FN:1767,_ZNSt6vectorIS_IiSaIiEESaIS1_EE17_S_check_init_lenEmRKS2_
FNDA:40068,_ZNSt6vectorIS_IiSaIiEESaIS1_EE17_S_check_init_lenEmRKS2_
FN:1767,_ZNSt6vectorIdSaIdEE17_S_check_init_lenEmRKS0_
FNDA:300002,_ZNSt6vectorIdSaIdEE17_S_check_init_lenEmRKS0_
FN:1767,_ZNSt6vectorIiSaIiEE17_S_check_init_lenEmRKS0_
FNDA:40285,_ZNSt6vectorIiSaIiEE17_S_check_init_lenEmRKS0_
FN:1767,_ZNSt6vectorISt4pairIiiESaIS1_EE17_S_check_init_lenEmRKS2_
FNDA:1,_ZNSt6vectorISt4pairIiiESaIS1_EE17_S_check_init_lenEmRKS2_
FN:1767,_ZNSt6vectorIS_IdSaIdEESaIS1_EE17_S_check_init_lenEmRKS2_
FNDA:2,_ZNSt6vectorIS_IdSaIdEESaIS1_EE17_S_check_init_lenEmRKS2_
FN:1776,_ZNSt6vectorIS_IiSaIiEESaIS1_EE11_S_max_sizeERKS2_
FNDA:40676,_ZNSt6vectorIS_IiSaIiEESaIS1_EE11_S_max_sizeERKS2_
FN:1776,_ZNSt6vectorISt4pairIiiESaIS1_EE11_S_max_sizeERKS2_
FNDA:133,_ZNSt6vectorISt4pairIiiESaIS1_EE11_S_max_sizeERKS2_
FN:1776,_ZNSt6vectorIS_IdSaIdEESaIS1_EE11_S_max_sizeERKS2_
FNDA:0,_ZNSt6vectorIS_IdSaIdEESaIS1_EE11_S_max_sizeERKS2_
FN:1776,_ZNSt6vectorIdSaIdEE11_S_max_sizeERKS0_
FNDA:300002,_ZNSt6vectorIdSaIdEE11_S_max_sizeERKS0_
FN:1776,_ZNSt6vectorIiSaIiEE11_S_max_sizeERKS0_
FNDA:0,_ZNSt6vectorIiSaIiEE11_S_max_sizeERKS0_
FN:1792,_ZNSt6vectorIS_IiSaIiEESaIS1_EE15_M_erase_at_endEPS1_
FNDA:0,_ZNSt6vectorIS_IiSaIiEESaIS1_EE15_M_erase_at_endEPS1_
FN:1792,_ZNSt6vectorIiSaIiEE15_M_erase_at_endEPi
FNDA:55,_ZNSt6vectorIiSaIiEE15_M_erase_at_endEPi
FN:1815,_ZNSt6vectorIiSaIiEE14_M_move_assignEOS1_St17integral_constantIbLb1EE
FNDA:47,_ZNSt6vectorIiSaIiEE14_M_move_assignEOS1_St17integral_constantIbLb1EE
FN:1815,_ZNSt6vectorIS_IiSaIiEESaIS1_EE14_M_move_assignEOS3_St17integral_constantIbLb1EE
FNDA:5,_ZNSt6vectorIS_IiSaIiEESaIS1_EE14_M_move_assignEOS3_St17integral_constantIbLb1EE
FN:1892,_ZSteqISt6vectorIiSaIiEESaIS2_EEbRKS0_IT_T0_ES8_
FNDA:6,_ZSteqISt6vectorIiSaIiEESaIS2_EEbRKS0_IT_T0_ES8_
FN:1892,_ZSteqISt4pairIiiESaIS1_EEbRKSt6vectorIT_T0_ES8_
FNDA:1,_ZSteqISt4pairIiiESaIS1_EEbRKSt6vectorIT_T0_ES8_
FN:1892,_ZSteqIiSaIiEEbRKSt6vectorIT_T0_ES6_
FNDA:89,_ZSteqIiSaIiEEbRKSt6vectorIT_T0_ES6_
FNF:185
FNH:150
DA:97,300002
DA:98,300002
DA:99,300002
DA:97,0
DA:98,0
DA:99,0
DA:97,105
DA:98,105
DA:99,105
DA:97,3734972
DA:98,3734972
DA:99,3734972
DA:97,81
DA:98,81
DA:99,81
DA:97,10
DA:98,10
DA:99,10
DA:97,420544
DA:98,420544
DA:99,420544
DA:102,1481
DA:103,1481
DA:104,1481
DA:105,1481
DA:109,315
DA:111,315
DA:112,315
DA:113,315
DA:114,315
DA:109,30
DA:111,30
DA:112,30
DA:113,30
DA:114,30
DA:117,105
DA:121,105
DA:122,105
DA:123,105
DA:124,105
DA:125,105
DA:117,10
DA:121,10
DA:122,10
DA:123,10
DA:124,10
DA:125,10
DA:131,41197
DA:133,41197
DA:134,41197
DA:131,79
DA:133,79
DA:134,79
DA:131,189
DA:133,189
DA:134,189
DA:136,2
DA:137,2
DA:138,2
DA:136,0
DA:137,0
DA:138,0
DA:136,3300017
DA:137,3300017
DA:138,3300017
DA:136,420355
DA:137,420355
DA:138,420355
DA:136,3693775
DA:137,3693775
DA:138,3693775
DA:143,1481
DA:144,1481
DA:145,1481
DA:276,600004
DA:277,600004
DA:276,0
DA:277,0
DA:276,8100520
DA:277,8100520
DA:276,216
DA:277,216
DA:276,881633
DA:277,881633
DA:280,133
DA:281,133
DA:280,0
DA:281,0
DA:280,300000
DA:281,300000
DA:280,380895
DA:281,380895
DA:280,4023455
DA:281,4023455
DA:284,58
DA:285,58
DA:284,5
DA:285,5
DA:288,0
DA:288,79
DA:288,189
DA:293,1
DA:294,1
DA:293,16
DA:294,16
DA:293,227
DA:294,227
DA:303,1
DA:304,1
DA:305,1
DA:303,0
DA:304,0
DA:305,0
DA:303,0
DA:304,0
DA:305,0
DA:303,420339
DA:304,420339
DA:305,420339
DA:303,3693548
DA:304,3693548
DA:305,3693548
DA:308,1481
DA:333,300002
DA:335,300002
DA:336,300002
DA:337,300002
DA:333,3300017
DA:335,3300017
DA:336,3300017
DA:337,3300017
DA:333,3736448
DA:335,3736448
DA:336,3736448
DA:337,3736448
DA:333,81
DA:335,81
DA:336,81
DA:337,81
DA:333,420544
DA:335,420544
DA:336,420544
DA:337,420544
DA:343,0
DA:346,0
DA:343,3300017
DA:346,3300017
DA:343,68
DA:346,68
DA:343,420654
DA:346,420654
DA:343,0
DA:346,0
DA:350,300002
DA:353,300002
DA:354,300002
DA:355,300002
DA:350,3300017
DA:353,3300017
DA:354,3300017
DA:355,3300017
DA:350,0
DA:353,0
DA:354,0
DA:355,0
DA:350,147
DA:353,147
DA:354,68
DA:355,147
DA:350,420848
DA:353,420848
DA:354,420654
DA:355,420848
DA:359,1
DA:361,1
DA:362,1
DA:363,1
DA:364,1
DA:359,300002
DA:361,300002
DA:362,300002
DA:363,300002
DA:364,300002
DA:359,0
DA:361,0
DA:362,0
DA:363,0
DA:364,0
DA:359,420339
DA:361,420339
DA:362,420339
DA:363,420339
DA:364,420339
DA:359,3693548
DA:361,3693548
DA:362,3693548
DA:363,3693548
DA:364,3693548
DA:453,498
DA:456,498
DA:453,132
DA:456,132
DA:453,0
DA:456,0
DA:465,498
DA:469,498
DA:465,132
DA:469,132
DA:465,369938
DA:469,369938
DA:487,0
DA:487,79
DA:487,189
DA:497,47
DA:498,47
DA:497,5
DA:498,5
DA:510,61
DA:511,61
DA:512,58
DA:510,42
DA:511,42
DA:512,42
DA:522,2
DA:524,2
DA:525,2
DA:522,300002
DA:524,300002
DA:525,300002
DA:522,40015
DA:524,40015
DA:525,40015
DA:522,40031
DA:524,40031
DA:525,40031
DA:553,1
DA:555,1
DA:557,1
DA:558,1
DA:560,1
DA:561,1
DA:553,3000015
DA:555,3000015
DA:557,3000015
DA:558,3000015
DA:560,3000015
DA:561,3000015
DA:553,300000
DA:555,300000
DA:557,300000
DA:558,300000
DA:560,300000
DA:561,300000
DA:553,380282
DA:555,380282
DA:557,380282
DA:558,380282
DA:560,380282
DA:561,380282
DA:553,3653459
DA:555,3653459
DA:557,3653459
DA:558,3653459
DA:560,3653459
DA:561,3653459
DA:572,1481
DA:625,1
DA:627,1
DA:629,1
DA:630,1
DA:631,1
DA:625,11
DA:627,11
DA:629,11
DA:630,11
DA:631,11
DA:625,169
DA:627,169
DA:629,169
DA:630,169
DA:631,169
DA:653,11
DA:655,11
DA:657,11
DA:658,11
DA:659,11
DA:678,0
DA:680,0
DA:681,0
DA:683,0
DA:678,3300017
DA:680,3300017
DA:681,3300017
DA:683,3300017
DA:678,0
DA:680,0
DA:681,0
DA:683,0
DA:678,81
DA:680,81
DA:681,81
DA:683,81
DA:678,420544
DA:680,420544
DA:681,420544
DA:683,420544
DA:709,47
DA:711,47
DA:714,47
DA:715,47
DA:709,5
DA:711,5
DA:714,5
DA:715,5
DA:730,34
DA:732,34
DA:733,34
DA:734,34
DA:811,40304
DA:812,40304
DA:811,966
DA:812,966
DA:811,0
DA:812,0
DA:820,1369
DA:821,1369
DA:820,3000015
DA:821,3000015
DA:820,300000
DA:821,300000
DA:820,420294
DA:821,420294
DA:820,3953637
DA:821,3953637
DA:829,40971
DA:830,40971
DA:829,1422
DA:830,1422
DA:829,0
DA:830,0
DA:838,468
DA:839,468
DA:838,0
DA:839,0
DA:838,300000
DA:839,300000
DA:838,420288
DA:839,420288
DA:838,3953548
DA:839,3953548
DA:918,267
DA:919,267
DA:918,0
DA:919,0
DA:918,0
DA:919,0
DA:918,3984527
DA:919,3984527
DA:918,5378435
DA:919,5378435
DA:923,132
DA:924,132
DA:923,608
DA:924,608
DA:923,0
DA:924,0
DA:957,58
DA:959,58
DA:960,55
DA:961,3
DA:962,0
DA:963,58
DA:989,13
DA:990,13
DA:998,300047
DA:999,300047
DA:1000,300047
DA:998,40000
DA:999,40000
DA:1000,40000
DA:1007,466
DA:1008,466
DA:1043,13170009
DA:1046,13170009
DA:1043,0
DA:1046,0
DA:1043,0
DA:1046,0
DA:1043,18443315
DA:1046,18443315
DA:1061,2865
DA:1064,2865
DA:1061,2798
DA:1064,2798
DA:1121,200013
DA:1124,200013
DA:1132,900
DA:1135,900
DA:1143,667
DA:1146,667
DA:1143,1281
DA:1146,1281
DA:1143,456
DA:1146,456
DA:1187,359018
DA:1189,359018
DA:1192,175111
DA:1194,175111
DA:1198,183907
DA:1199,359018
DA:1203,667
DA:1204,667
DA:1203,1281
DA:1204,1281
DA:1203,456
DA:1204,456
DA:1225,450
DA:1228,450
DA:1229,450
DA:1231,450
DA:1480,11
DA:1486,11
DA:1487,11
DA:1488,11
DA:1489,11
DA:1498,0
DA:1499,0
DA:1498,55
DA:1499,55
DA:1508,0
DA:1511,0
DA:1514,0
DA:1515,0
DA:1516,0
DA:1518,0
DA:1520,0
DA:1521,0
DA:1508,13
DA:1511,13
DA:1514,13
DA:1515,13
DA:1516,13
DA:1518,0
DA:1520,0
DA:1521,0
DA:1508,0
DA:1511,0
DA:1514,0
DA:1515,0
DA:1516,0
DA:1518,0
DA:1520,0
DA:1521,0
DA:1577,11
DA:1580,11
DA:1582,11
DA:1583,11
DA:1584,11
DA:1585,11
DA:1587,11
DA:1588,11
DA:1577,1
DA:1580,1
DA:1582,1
DA:1583,1
DA:1584,1
DA:1585,1
DA:1587,1
DA:1588,1
DA:1577,11
DA:1580,11
DA:1582,11
DA:1583,11
DA:1584,11
DA:1585,11
DA:1587,11
DA:1588,11
DA:1577,169
DA:1580,169
DA:1582,169
DA:1583,169
DA:1584,169
DA:1585,169
DA:1587,169
DA:1588,169
DA:1593,0
DA:1595,0
DA:1596,0
DA:1597,0
DA:1598,0
DA:1593,300002
DA:1595,300002
DA:1596,300002
DA:1597,300002
DA:1598,300002
DA:1593,40015
DA:1595,40015
DA:1596,40015
DA:1597,40015
DA:1598,40015
DA:1593,40031
DA:1595,40031
DA:1596,40031
DA:1597,40031
DA:1598,40031
DA:1603,58
DA:1605,58
DA:1606,58
DA:1607,58
DA:1608,58
DA:1603,42
DA:1605,42
DA:1606,42
DA:1607,42
DA:1608,42
DA:1709,0
DA:1711,0
DA:1713,0
DA:1715,0
DA:1716,0
DA:1719,0
DA:1723,0
DA:1756,66
DA:1758,66
DA:1759,0
DA:1761,66
DA:1762,66
DA:1756,304
DA:1758,304
DA:1759,0
DA:1761,304
DA:1762,304
DA:1756,0
DA:1758,0
DA:1759,0
DA:1761,0
DA:1762,0
DA:1767,1
DA:1769,1
DA:1770,0
DA:1772,1
DA:1767,2
DA:1769,2
DA:1770,0
DA:1772,2
DA:1767,300002
DA:1769,300002
DA:1770,0
DA:1772,300002
DA:1767,40068
DA:1769,40068
DA:1770,0
DA:1772,40068
DA:1767,40285
DA:1769,40285
DA:1770,3
DA:1772,40282
DA:1776,133
DA:1781,133
DA:1783,133
DA:1784,133
DA:1776,0
DA:1781,0
DA:1783,0
DA:1784,0
DA:1776,300002
DA:1781,300002
DA:1783,300002
DA:1784,300002
DA:1776,40676
DA:1781,40676
DA:1783,40676
DA:1784,40676
DA:1776,0
DA:1781,0
DA:1783,0
DA:1784,0
DA:1792,55
DA:1794,55
DA:1796,50
DA:1797,50
DA:1798,50
DA:1801,55
DA:1792,0
DA:1794,0
DA:1796,0
DA:1797,0
DA:1798,0
DA:1801,0
DA:1815,47
DA:1817,94
DA:1818,47
DA:1819,47
DA:1820,47
DA:1821,47
DA:1815,5
DA:1817,10
DA:1818,5
DA:1819,5
DA:1820,5
DA:1821,5
DA:1892,89
DA:1893,89
DA:1894,89
DA:1892,1
DA:1893,1
DA:1894,1
DA:1892,6
DA:1893,6
DA:1894,6
LF:610
LH:494
end_of_record
SF:/usr/local/include/gtest/gtest-assertion-result.h
FN:152,_ZN7testing15AssertionResultC1IbEERKT_PNSt9enable_ifIXntsrSt14is_convertibleIS2_S0_E5valueEvE4typeE
FNDA:3219,_ZN7testing15AssertionResultC1IbEERKT_PNSt9enable_ifIXntsrSt14is_convertibleIS2_S0_E5valueEvE4typeE
FN:171,_ZNK7testing15AssertionResultcvbEv
FNDA:0,_ZNK7testing15AssertionResultcvbEv
FN:180,_ZNK7testing15AssertionResult7messageEv
FNDA:0,_ZNK7testing15AssertionResult7messageEv
FN:184,_ZNK7testing15AssertionResult15failure_messageEv
FNDA:0,_ZNK7testing15AssertionResult15failure_messageEv
FNF:4
FNH:1
DA:152,3219
DA:158,3219
DA:171,0
DA:180,0
DA:181,0
DA:184,0
LF:6
LH:2
end_of_record
SF:/usr/local/include/c++/10.3.0/bits/predefined_ops.h
FN:155,_ZN9__gnu_cxx5__ops15_Iter_comp_iterISt4lessISt4pairIiiEEEclINS_17__normal_iteratorIPS4_St6vectorIS4_SaIS4_EEEESD_EEbT_T0_
FNDA:977,_ZN9__gnu_cxx5__ops15_Iter_comp_iterISt4lessISt4pairIiiEEEclINS_17__normal_iteratorIPS4_St6vectorIS4_SaIS4_EEEESD_EEbT_T0_
FN:172,_ZN9__gnu_cxx5__ops14_Iter_comp_valISt4lessISt4pairIiiEEEC1ES5_
FNDA:450,_ZN9__gnu_cxx5__ops14_Iter_comp_valISt4lessISt4pairIiiEEEC1ES5_
FN:185,_ZN9__gnu_cxx5__ops14_Iter_comp_valISt4lessISt4pairIiiEEEC1EONS0_15_Iter_comp_iterIS5_EE
FNDA:413,_ZN9__gnu_cxx5__ops14_Iter_comp_valISt4lessISt4pairIiiEEEC1EONS0_15_Iter_comp_iterIS5_EE
FN:193,_ZN9__gnu_cxx5__ops14_Iter_comp_valISt4lessISt4pairIiiEEEclINS_17__normal_iteratorIPS4_St6vectorIS4_SaIS4_EEEES4_EEbT_RT0_
FNDA:1034,_ZN9__gnu_cxx5__ops14_Iter_comp_valISt4lessISt4pairIiiEEEclINS_17__normal_iteratorIPS4_St6vectorIS4_SaIS4_EEEES4_EEbT_RT0_
FN:260,_ZN9__gnu_cxx5__ops16_Iter_equals_valIKiEC1ERS2_
FNDA:188,_ZN9__gnu_cxx5__ops16_Iter_equals_valIKiEC1ERS2_
FN:267,_ZN9__gnu_cxx5__ops16_Iter_equals_valIKiEclINS_17__normal_iteratorIPiSt6vectorIiSaIiEEEEEEbT_
FNDA:717,_ZN9__gnu_cxx5__ops16_Iter_equals_valIKiEclINS_17__normal_iteratorIPiSt6vectorIiSaIiEEEEEEbT_
FN:274,_ZN9__gnu_cxx5__ops17__iter_equals_valIKiEENS0_16_Iter_equals_valIT_EERS4_
FNDA:188,_ZN9__gnu_cxx5__ops17__iter_equals_valIKiEENS0_16_Iter_equals_valIT_EERS4_
FNF:7
FNH:7
DA:155,977
DA:156,977
DA:172,450
DA:173,450
DA:174,450
DA:185,413
DA:186,413
DA:187,413
DA:193,1034
DA:194,1034
DA:260,188
DA:261,188
DA:262,188
DA:267,717
DA:268,717
DA:274,188
DA:275,188
LF:17
LH:17
end_of_record
SF:/Users/qylenett/Desktop/navigator/SimpleNavigator-v1.0/src/conteiners/s21_queue.h
FN:22,_ZN3s215QueueIiNS_4ListIiEEEC1Ev
FNDA:13,_ZN3s215QueueIiNS_4ListIiEEEC1Ev
FN:26,_ZN3s215QueueIiNS_4ListIiEEED1Ev
FNDA:13,_ZN3s215QueueIiNS_4ListIiEEED1Ev
FN:37,_ZN3s215QueueIiNS_4ListIiEEE5frontEv
FNDA:423,_ZN3s215QueueIiNS_4ListIiEEE5frontEv
FN:40,_ZN3s215QueueIiNS_4ListIiEEE5emptyEv
FNDA:436,_ZN3s215QueueIiNS_4ListIiEEE5emptyEv
FN:43,_ZN3s215QueueIiNS_4ListIiEEE4pushERKi
FNDA:423,_ZN3s215QueueIiNS_4ListIiEEE4pushERKi
FN:44,_ZN3s215QueueIiNS_4ListIiEEE3popEv
FNDA:423,_ZN3s215QueueIiNS_4ListIiEEE3popEv
FNF:6
FNH:6
DA:22,13
DA:26,13
DA:37,423
DA:40,436
DA:43,423
DA:44,423
LF:6
LH:6
end_of_record
SF:/Users/qylenett/Desktop/navigator/SimpleNavigator-v1.0/src/s21_graph/s21_graph.h
FN:14,_ZN3s219s21_GraphC1Ev
FNDA:63,_ZN3s219s21_GraphC1Ev
FN:16,_ZN3s219s21_GraphD1Ev
FNDA:63,_ZN3s219s21_GraphD1Ev
FNF:2
FNH:2
DA:14,63
DA:16,63
LF:2
LH:2
end_of_record
SF:/usr/local/include/gtest/internal/gtest-type-util.h
FN:57,_ZN7testing8internal31CanonicalizeForStdLibVersioningENSt7__cxx1112basic_stringIcSt11char_traitsIcESaIcEEE
FNDA:0,_ZN7testing8internal31CanonicalizeForStdLibVersioningENSt7__cxx1112basic_stringIcSt11char_traitsIcESaIcEEE
FN:71,_ZN7testing8internal11GetTypeNameB5cxx11ERKSt9type_info
FNDA:0,_ZN7testing8internal11GetTypeNameB5cxx11ERKSt9type_info
FNF:2
FNH:0
DA:57,0
DA:59,0
DA:60,0
DA:61,0
DA:63,0
DA:66,0
DA:71,0
DA:72,0
DA:74,0
DA:80,0
DA:81,0
DA:82,0
DA:83,0
LF:13
LH:0
end_of_record
SF:/Users/qylenett/Desktop/navigator/SimpleNavigator-v1.0/src/tests/main_tests.cc
FN:15,_ZN3s214mainEiPPc
FNDA:0,_ZN3s214mainEiPPc
FNF:1
FNH:0
DA:15,0
DA:16,0
DA:17,0
LF:3
LH:0
end_of_record
SF:/usr/local/include/c++/10.3.0/bits/alloc_traits.h
FN:459,_ZNSt16allocator_traitsISaIPiEE8allocateERS1_m
FNDA:8,_ZNSt16allocator_traitsISaIPiEE8allocateERS1_m
FN:459,_ZNSt16allocator_traitsISaISt6vectorIdSaIdEEEE8allocateERS3_m
FNDA:0,_ZNSt16allocator_traitsISaISt6vectorIdSaIdEEEE8allocateERS3_m
FN:459,_ZNSt16allocator_traitsISaIdEE8allocateERS0_m
FNDA:0,_ZNSt16allocator_traitsISaIdEE8allocateERS0_m
FN:459,_ZNSt16allocator_traitsISaISt4pairIiiEEE8allocateERS2_m
FNDA:68,_ZNSt16allocator_traitsISaISt4pairIiiEEE8allocateERS2_m
FN:459,_ZNSt16allocator_traitsISaIiEE8allocateERS0_m
FNDA:3878684,_ZNSt16allocator_traitsISaIiEE8allocateERS0_m
FN:459,_ZNSt16allocator_traitsISaImEE8allocateERS0_m
FNDA:0,_ZNSt16allocator_traitsISaImEE8allocateERS0_m
FN:459,_ZNSt16allocator_traitsISaISt6vectorIiSaIiEEEE8allocateERS3_m
FNDA:420654,_ZNSt16allocator_traitsISaISt6vectorIiSaIiEEEE8allocateERS3_m
FN:491,_ZNSt16allocator_traitsISaImEE10deallocateERS0_Pmm
FNDA:134,_ZNSt16allocator_traitsISaImEE10deallocateERS0_Pmm
FN:491,_ZNSt16allocator_traitsISaISt4pairIiiEEE10deallocateERS2_PS1_m
FNDA:68,_ZNSt16allocator_traitsISaISt4pairIiiEEE10deallocateERS2_PS1_m
FN:491,_ZNSt16allocator_traitsISaIiEE10deallocateERS0_Pim
FNDA:3878679,_ZNSt16allocator_traitsISaIiEE10deallocateERS0_Pim
FN:491,_ZNSt16allocator_traitsISaISt6vectorIiSaIiEEEE10deallocateERS3_PS2_m
FNDA:420654,_ZNSt16allocator_traitsISaISt6vectorIiSaIiEEEE10deallocateERS3_PS2_m
FN:491,_ZNSt16allocator_traitsISaIdEE10deallocateERS0_Pdm
FNDA:3300017,_ZNSt16allocator_traitsISaIdEE10deallocateERS0_Pdm
FN:491,_ZNSt16allocator_traitsISaISt6vectorIdSaIdEEEE10deallocateERS3_PS2_m
FNDA:300002,_ZNSt16allocator_traitsISaISt6vectorIdSaIdEEEE10deallocateERS3_PS2_m
FN:491,_ZNSt16allocator_traitsISaIPiEE10deallocateERS1_PS0_m
FNDA:8,_ZNSt16allocator_traitsISaIPiEE10deallocateERS1_PS0_m
FN:507,_ZNSt16allocator_traitsISaISt4pairIiiEEE9constructIS1_JS1_EEEvRS2_PT_DpOT0_
FNDA:661,_ZNSt16allocator_traitsISaISt4pairIiiEEE9constructIS1_JS1_EEEvRS2_PT_DpOT0_
FN:507,_ZNSt16allocator_traitsISaIiEE9constructIiJRKiEEEvRS0_PT_DpOT0_
FNDA:359086,_ZNSt16allocator_traitsISaIiEE9constructIiJRKiEEEvRS0_PT_DpOT0_
FN:507,_ZNSt16allocator_traitsISaIiEE9constructIiJiEEEvRS0_PT_DpOT0_
FNDA:1281,_ZNSt16allocator_traitsISaIiEE9constructIiJiEEEvRS0_PT_DpOT0_
FN:507,_ZNSt16allocator_traitsISaISt6vectorIiSaIiEEEE9constructIS2_JS2_EEEvRS3_PT_DpOT0_
FNDA:1481,_ZNSt16allocator_traitsISaISt6vectorIiSaIiEEEE9constructIS2_JS2_EEEvRS3_PT_DpOT0_
FN:507,_ZNSt16allocator_traitsISaISt6vectorIiSaIiEEEE9constructIS2_JRKS2_EEEvRS3_PT_DpOT0_
FNDA:0,_ZNSt16allocator_traitsISaISt6vectorIiSaIiEEEE9constructIS2_JRKS2_EEEvRS3_PT_DpOT0_
FN:527,_ZNSt16allocator_traitsISaIiEE7destroyIiEEvRS0_PT_
FNDA:68,_ZNSt16allocator_traitsISaIiEE7destroyIiEEvRS0_PT_
FN:527,_ZNSt16allocator_traitsISaISt4pairIiiEEE7destroyIS1_EEvRS2_PT_
FNDA:655,_ZNSt16allocator_traitsISaISt4pairIiiEEE7destroyIS1_EEvRS2_PT_
FN:527,_ZNSt16allocator_traitsISaISt6vectorIiSaIiEEEE7destroyIS2_EEvRS3_PT_
FNDA:814,_ZNSt16allocator_traitsISaISt6vectorIiSaIiEEEE7destroyIS2_EEvRS3_PT_
FN:543,_ZNSt16allocator_traitsISaIiEE8max_sizeERKS0_
FNDA:410223,_ZNSt16allocator_traitsISaIiEE8max_sizeERKS0_
FN:543,_ZNSt16allocator_traitsISaISt6vectorIdSaIdEEEE8max_sizeERKS3_
FNDA:2,_ZNSt16allocator_traitsISaISt6vectorIdSaIdEEEE8max_sizeERKS3_
FN:543,_ZNSt16allocator_traitsISaISt4pairIiiEEE8max_sizeERKS2_
FNDA:133,_ZNSt16allocator_traitsISaISt4pairIiiEEE8max_sizeERKS2_
FN:543,_ZNSt16allocator_traitsISaIdEE8max_sizeERKS0_
FNDA:300002,_ZNSt16allocator_traitsISaIdEE8max_sizeERKS0_
FN:543,_ZNSt16allocator_traitsISaISt6vectorIiSaIiEEEE8max_sizeERKS3_
FNDA:40676,_ZNSt16allocator_traitsISaISt6vectorIiSaIiEEEE8max_sizeERKS3_
FN:558,_ZNSt16allocator_traitsISaIcEE37select_on_container_copy_constructionERKS0_
FNDA:0,_ZNSt16allocator_traitsISaIcEE37select_on_container_copy_constructionERKS0_
FN:558,_ZNSt16allocator_traitsISaIdEE37select_on_container_copy_constructionERKS0_
FNDA:0,_ZNSt16allocator_traitsISaIdEE37select_on_container_copy_constructionERKS0_
FN:558,_ZNSt16allocator_traitsISaISt6vectorIdSaIdEEEE37select_on_container_copy_constructionERKS3_
FNDA:300000,_ZNSt16allocator_traitsISaISt6vectorIdSaIdEEEE37select_on_container_copy_constructionERKS3_
FN:558,_ZNSt16allocator_traitsISaImEE37select_on_container_copy_constructionERKS0_
FNDA:113,_ZNSt16allocator_traitsISaImEE37select_on_container_copy_constructionERKS0_
FN:558,_ZNSt16allocator_traitsISaISt4pairIiiEEE37select_on_container_copy_constructionERKS2_
FNDA:1,_ZNSt16allocator_traitsISaISt4pairIiiEEE37select_on_container_copy_constructionERKS2_
FN:558,_ZNSt16allocator_traitsISaISt6vectorIiSaIiEEEE37select_on_container_copy_constructionERKS3_
FNDA:380282,_ZNSt16allocator_traitsISaISt6vectorIiSaIiEEEE37select_on_container_copy_constructionERKS3_
FN:558,_ZNSt16allocator_traitsISaIiEE37select_on_container_copy_constructionERKS0_
FNDA:3653459,_ZNSt16allocator_traitsISaIiEE37select_on_container_copy_constructionERKS0_
FN:576,_ZSt15__alloc_on_copyISaISt6vectorIiSaIiEEEEvRT_RKS4_
FNDA:0,_ZSt15__alloc_on_copyISaISt6vectorIiSaIiEEEEvRT_RKS4_
FN:576,_ZSt15__alloc_on_copyISaIiEEvRT_RKS1_
FNDA:0,_ZSt15__alloc_on_copyISaIiEEvRT_RKS1_
FN:608,_ZSt15__alloc_on_moveISaISt6vectorIiSaIiEEEEvRT_S5_
FNDA:5,_ZSt15__alloc_on_moveISaISt6vectorIiSaIiEEEEvRT_S5_
FN:608,_ZSt15__alloc_on_moveISaIiEEvRT_S2_
FNDA:47,_ZSt15__alloc_on_moveISaIiEEvRT_S2_
FN:635,_ZSt15__alloc_on_swapISaIiEEvRT_S2_
FNDA:11,_ZSt15__alloc_on_swapISaIiEEvRT_S2_
FN:735,_ZSt8_DestroyIN9__gnu_cxx17__normal_iteratorIPSt6vectorIiSaIiEES2_IS4_SaIS4_EEEES4_EvT_S9_RSaIT0_E
FNDA:40000,_ZSt8_DestroyIN9__gnu_cxx17__normal_iteratorIPSt6vectorIiSaIiEES2_IS4_SaIS4_EEEES4_EvT_S9_RSaIT0_E
FN:735,_ZSt8_DestroyIPSt6vectorIdSaIdEES2_EvT_S4_RSaIT0_E
FNDA:0,_ZSt8_DestroyIPSt6vectorIdSaIdEES2_EvT_S4_RSaIT0_E
FN:735,_ZSt8_DestroyIPddEvT_S1_RSaIT0_E
FNDA:0,_ZSt8_DestroyIPddEvT_S1_RSaIT0_E
FN:735,_ZSt8_DestroyIN9__gnu_cxx17__normal_iteratorIPiSt6vectorIiSaIiEEEEiEvT_S7_RSaIT0_E
FNDA:300000,_ZSt8_DestroyIN9__gnu_cxx17__normal_iteratorIPiSt6vectorIiSaIiEEEEiEvT_S7_RSaIT0_E
FN:735,_ZSt8_DestroyIPiiEvT_S1_RSaIT0_E
FNDA:0,_ZSt8_DestroyIPiiEvT_S1_RSaIT0_E
FN:735,_ZSt8_DestroyIPSt4pairIiiES1_EvT_S3_RSaIT0_E
FNDA:81,_ZSt8_DestroyIPSt4pairIiiES1_EvT_S3_RSaIT0_E
FN:735,_ZSt8_DestroyIPSt6vectorIiSaIiEES2_EvT_S4_RSaIT0_E
FNDA:420599,_ZSt8_DestroyIPSt6vectorIiSaIiEES2_EvT_S4_RSaIT0_E
FNF:46
FNH:35
DA:459,8
DA:460,8
DA:459,0
DA:460,0
DA:459,0
DA:460,0
DA:459,68
DA:460,68
DA:459,420654
DA:460,420654
DA:459,0
DA:460,0
DA:459,3878684
DA:460,3878684
DA:491,8
DA:492,8
DA:491,300002
DA:492,300002
DA:491,3300017
DA:492,3300017
DA:491,134
DA:492,134
DA:491,3878679
DA:492,3878679
DA:491,68
DA:492,68
DA:491,420654
DA:492,420654
DA:507,0
DA:512,0
DA:516,0
DA:507,1481
DA:512,1481
DA:516,1481
DA:507,1281
DA:512,1281
DA:516,1281
DA:507,661
DA:512,661
DA:516,661
DA:507,359086
DA:512,359086
DA:516,359086
DA:527,814
DA:531,814
DA:535,814
DA:527,655
DA:531,655
DA:535,655
DA:527,68
DA:531,68
DA:535,68
DA:543,133
DA:546,133
DA:543,2
DA:546,2
DA:543,300002
DA:546,300002
DA:543,40676
DA:546,40676
DA:543,410223
DA:546,410223
DA:558,1
DA:559,1
DA:558,0
DA:559,0
DA:558,300000
DA:559,300000
DA:558,113
DA:559,113
DA:558,380282
DA:559,380282
DA:558,3653459
DA:559,3653459
DA:558,0
DA:559,0
DA:576,0
DA:586,0
DA:576,0
DA:586,0
DA:608,47
DA:614,47
DA:618,47
DA:608,5
DA:614,5
DA:618,5
DA:635,11
DA:648,11
DA:735,300000
DA:738,300000
DA:739,300000
DA:735,40000
DA:738,40000
DA:739,40000
DA:735,0
DA:738,0
DA:739,0
DA:735,0
DA:738,0
DA:739,0
DA:735,0
DA:738,0
DA:739,0
DA:735,81
DA:738,81
DA:739,81
DA:735,420599
DA:738,420599
DA:739,420599
LF:109
LH:83
end_of_record
SF:/usr/local/include/c++/10.3.0/tuple
FN:80,_ZNSt10_Head_baseILm1ESt14default_deleteINSt7__cxx1112basic_stringIcSt11char_traitsIcESaIcEEEELb1EEC2Ev
FNDA:3219,_ZNSt10_Head_baseILm1ESt14default_deleteINSt7__cxx1112basic_stringIcSt11char_traitsIcESaIcEEEELb1EEC2Ev
FN:117,_ZNSt10_Head_baseILm1ESt14default_deleteINSt7__cxx1118basic_stringstreamIcSt11char_traitsIcESaIcEEEELb1EE7_M_headERS8_
FNDA:0,_ZNSt10_Head_baseILm1ESt14default_deleteINSt7__cxx1118basic_stringstreamIcSt11char_traitsIcESaIcEEEELb1EE7_M_headERS8_
FN:117,_ZNSt10_Head_baseILm1ESt14default_deleteINSt7__cxx1112basic_stringIcSt11char_traitsIcESaIcEEEELb1EE7_M_headERS8_
FNDA:0,_ZNSt10_Head_baseILm1ESt14default_deleteINSt7__cxx1112basic_stringIcSt11char_traitsIcESaIcEEEELb1EE7_M_headERS8_
FN:126,_ZNSt10_Head_baseILm0EPNSt7__cxx1112basic_stringIcSt11char_traitsIcESaIcEEELb0EEC2Ev
FNDA:3219,_ZNSt10_Head_baseILm0EPNSt7__cxx1112basic_stringIcSt11char_traitsIcESaIcEEELb0EEC2Ev
FN:166,_ZNSt10_Head_baseILm0EPNSt7__cxx1112basic_stringIcSt11char_traitsIcESaIcEEELb0EE7_M_headERS7_
FNDA:3219,_ZNSt10_Head_baseILm0EPNSt7__cxx1112basic_stringIcSt11char_traitsIcESaIcEEELb0EE7_M_headERS7_
FN:166,_ZNSt10_Head_baseILm0EPNSt7__cxx1118basic_stringstreamIcSt11char_traitsIcESaIcEEELb0EE7_M_headERS7_
FNDA:248,_ZNSt10_Head_baseILm0EPNSt7__cxx1118basic_stringstreamIcSt11char_traitsIcESaIcEEELb0EE7_M_headERS7_
FN:169,_ZNSt10_Head_baseILm0EPNSt7__cxx1112basic_stringIcSt11char_traitsIcESaIcEEELb0EE7_M_headERKS7_
FNDA:0,_ZNSt10_Head_baseILm0EPNSt7__cxx1112basic_stringIcSt11char_traitsIcESaIcEEELb0EE7_M_headERKS7_
FN:201,_ZNSt11_Tuple_implILm0EJPNSt7__cxx1118basic_stringstreamIcSt11char_traitsIcESaIcEEESt14default_deleteIS5_EEE7_M_headERS9_
FNDA:0,_ZNSt11_Tuple_implILm0EJPNSt7__cxx1118basic_stringstreamIcSt11char_traitsIcESaIcEEESt14default_deleteIS5_EEE7_M_headERS9_
FN:201,_ZNSt11_Tuple_implILm0EJPNSt7__cxx1112basic_stringIcSt11char_traitsIcESaIcEEESt14default_deleteIS5_EEE7_M_headERS9_
FNDA:3219,_ZNSt11_Tuple_implILm0EJPNSt7__cxx1112basic_stringIcSt11char_traitsIcESaIcEEESt14default_deleteIS5_EEE7_M_headERS9_
FN:204,_ZNSt11_Tuple_implILm0EJPNSt7__cxx1112basic_stringIcSt11char_traitsIcESaIcEEESt14default_deleteIS5_EEE7_M_headERKS9_
FNDA:0,_ZNSt11_Tuple_implILm0EJPNSt7__cxx1112basic_stringIcSt11char_traitsIcESaIcEEESt14default_deleteIS5_EEE7_M_headERKS9_
FN:212,_ZNSt11_Tuple_implILm0EJPNSt7__cxx1112basic_stringIcSt11char_traitsIcESaIcEEESt14default_deleteIS5_EEEC2Ev
FNDA:3219,_ZNSt11_Tuple_implILm0EJPNSt7__cxx1112basic_stringIcSt11char_traitsIcESaIcEEESt14default_deleteIS5_EEEC2Ev
FN:349,_ZNSt11_Tuple_implILm1EJSt14default_deleteINSt7__cxx1118basic_stringstreamIcSt11char_traitsIcESaIcEEEEEE7_M_headERS8_
FNDA:124,_ZNSt11_Tuple_implILm1EJSt14default_deleteINSt7__cxx1118basic_stringstreamIcSt11char_traitsIcESaIcEEEEEE7_M_headERS8_
FN:349,_ZNSt11_Tuple_implILm1EJSt14default_deleteINSt7__cxx1112basic_stringIcSt11char_traitsIcESaIcEEEEEE7_M_headERS8_
FNDA:0,_ZNSt11_Tuple_implILm1EJSt14default_deleteINSt7__cxx1112basic_stringIcSt11char_traitsIcESaIcEEEEEE7_M_headERS8_
FN:354,_ZNSt11_Tuple_implILm1EJSt14default_deleteINSt7__cxx1112basic_stringIcSt11char_traitsIcESaIcEEEEEEC2Ev
FNDA:3219,_ZNSt11_Tuple_implILm1EJSt14default_deleteINSt7__cxx1112basic_stringIcSt11char_traitsIcESaIcEEEEEEC2Ev
FN:959,_ZNSt5tupleIJPNSt7__cxx1112basic_stringIcSt11char_traitsIcESaIcEEESt14default_deleteIS5_EEEC1ILb1ELb1EEEv
FNDA:3219,_ZNSt5tupleIJPNSt7__cxx1112basic_stringIcSt11char_traitsIcESaIcEEESt14default_deleteIS5_EEEC1ILb1ELb1EEEv
FN:1287,_ZSt12__get_helperILm1ESt14default_deleteINSt7__cxx1112basic_stringIcSt11char_traitsIcESaIcEEEEJEERT0_RSt11_Tuple_implIXT_EJS8_DpT1_EE
FNDA:0,_ZSt12__get_helperILm1ESt14default_deleteINSt7__cxx1112basic_stringIcSt11char_traitsIcESaIcEEEEJEERT0_RSt11_Tuple_implIXT_EJS8_DpT1_EE
FN:1287,_ZSt12__get_helperILm0EPNSt7__cxx1118basic_stringstreamIcSt11char_traitsIcESaIcEEEJSt14default_deleteIS5_EEERT0_RSt11_Tuple_implIXT_EJS9_DpT1_EE
FNDA:248,_ZSt12__get_helperILm0EPNSt7__cxx1118basic_stringstreamIcSt11char_traitsIcESaIcEEEJSt14default_deleteIS5_EEERT0_RSt11_Tuple_implIXT_EJS9_DpT1_EE
FN:1287,_ZSt12__get_helperILm0EPNSt7__cxx1112basic_stringIcSt11char_traitsIcESaIcEEEJSt14default_deleteIS5_EEERT0_RSt11_Tuple_implIXT_EJS9_DpT1_EE
FNDA:3219,_ZSt12__get_helperILm0EPNSt7__cxx1112basic_stringIcSt11char_traitsIcESaIcEEEJSt14default_deleteIS5_EEERT0_RSt11_Tuple_implIXT_EJS9_DpT1_EE
FN:1287,_ZSt12__get_helperILm1ESt14default_deleteINSt7__cxx1118basic_stringstreamIcSt11char_traitsIcESaIcEEEEJEERT0_RSt11_Tuple_implIXT_EJS8_DpT1_EE
FNDA:0,_ZSt12__get_helperILm1ESt14default_deleteINSt7__cxx1118basic_stringstreamIcSt11char_traitsIcESaIcEEEEJEERT0_RSt11_Tuple_implIXT_EJS8_DpT1_EE
FN:1292,_ZSt12__get_helperILm0EPNSt7__cxx1112basic_stringIcSt11char_traitsIcESaIcEEEJSt14default_deleteIS5_EEERKT0_RKSt11_Tuple_implIXT_EJS9_DpT1_EE
FNDA:0,_ZSt12__get_helperILm0EPNSt7__cxx1112basic_stringIcSt11char_traitsIcESaIcEEEJSt14default_deleteIS5_EEERKT0_RKSt11_Tuple_implIXT_EJS9_DpT1_EE
FN:1298,_ZSt3getILm1EJPNSt7__cxx1118basic_stringstreamIcSt11char_traitsIcESaIcEEESt14default_deleteIS5_EEERNSt13tuple_elementIXT_ESt5tupleIJDpT0_EEE4typeERSD_
FNDA:124,_ZSt3getILm1EJPNSt7__cxx1118basic_stringstreamIcSt11char_traitsIcESaIcEEESt14default_deleteIS5_EEERNSt13tuple_elementIXT_ESt5tupleIJDpT0_EEE4typeERSD_
FN:1298,_ZSt3getILm1EJPNSt7__cxx1112basic_stringIcSt11char_traitsIcESaIcEEESt14default_deleteIS5_EEERNSt13tuple_elementIXT_ESt5tupleIJDpT0_EEE4typeERSD_
FNDA:0,_ZSt3getILm1EJPNSt7__cxx1112basic_stringIcSt11char_traitsIcESaIcEEESt14default_deleteIS5_EEERNSt13tuple_elementIXT_ESt5tupleIJDpT0_EEE4typeERSD_
FN:1298,_ZSt3getILm0EJPNSt7__cxx1112basic_stringIcSt11char_traitsIcESaIcEEESt14default_deleteIS5_EEERNSt13tuple_elementIXT_ESt5tupleIJDpT0_EEE4typeERSD_
FNDA:3219,_ZSt3getILm0EJPNSt7__cxx1112basic_stringIcSt11char_traitsIcESaIcEEESt14default_deleteIS5_EEERNSt13tuple_elementIXT_ESt5tupleIJDpT0_EEE4typeERSD_
FN:1298,_ZSt3getILm0EJPNSt7__cxx1118basic_stringstreamIcSt11char_traitsIcESaIcEEESt14default_deleteIS5_EEERNSt13tuple_elementIXT_ESt5tupleIJDpT0_EEE4typeERSD_
FNDA:248,_ZSt3getILm0EJPNSt7__cxx1118basic_stringstreamIcSt11char_traitsIcESaIcEEESt14default_deleteIS5_EEERNSt13tuple_elementIXT_ESt5tupleIJDpT0_EEE4typeERSD_
FN:1304,_ZSt3getILm0EJPNSt7__cxx1112basic_stringIcSt11char_traitsIcESaIcEEESt14default_deleteIS5_EEERKNSt13tuple_elementIXT_ESt5tupleIJDpT0_EEE4typeERKSD_
FNDA:0,_ZSt3getILm0EJPNSt7__cxx1112basic_stringIcSt11char_traitsIcESaIcEEESt14default_deleteIS5_EEERKNSt13tuple_elementIXT_ESt5tupleIJDpT0_EEE4typeERKSD_
FNF:25
FNH:14
DA:80,3219
DA:81,3219
DA:117,0
DA:117,0
DA:126,3219
DA:127,3219
DA:166,3219
DA:166,248
DA:169,0
DA:201,3219
DA:201,0
DA:204,0
DA:212,3219
DA:213,3219
DA:349,0
DA:349,124
DA:354,3219
DA:355,3219
DA:959,3219
DA:961,3219
DA:1287,0
DA:1288,0
DA:1287,0
DA:1288,0
DA:1287,3219
DA:1288,3219
DA:1287,248
DA:1288,248
DA:1292,0
DA:1293,0
DA:1298,0
DA:1299,0
DA:1298,124
DA:1299,124
DA:1298,3219
DA:1299,3219
DA:1298,248
DA:1299,248
DA:1304,0
DA:1305,0
LF:40
LH:24
end_of_record
SF:/usr/local/include/c++/10.3.0/bits/stl_iterator_base_funcs.h
FN:98,_ZSt10__distanceISt13move_iteratorIN9__gnu_cxx17__normal_iteratorIPiSt6vectorIiSaIiEEEEEENSt15iterator_traitsIT_E15difference_typeESA_SA_St26random_access_iterator_tag
FNDA:11,_ZSt10__distanceISt13move_iteratorIN9__gnu_cxx17__normal_iteratorIPiSt6vectorIiSaIiEEEEEENSt15iterator_traitsIT_E15difference_typeESA_SA_St26random_access_iterator_tag
FN:98,_ZSt10__distanceIPKcENSt15iterator_traitsIT_E15difference_typeES3_S3_St26random_access_iterator_tag
FNDA:260423,_ZSt10__distanceIPKcENSt15iterator_traitsIT_E15difference_typeES3_S3_St26random_access_iterator_tag
FN:98,_ZSt10__distanceIPKSt4pairIiiEENSt15iterator_traitsIT_E15difference_typeES5_S5_St26random_access_iterator_tag
FNDA:1,_ZSt10__distanceIPKSt4pairIiiEENSt15iterator_traitsIT_E15difference_typeES5_S5_St26random_access_iterator_tag
FN:98,_ZSt10__distanceIPKSt6vectorIiSaIiEEENSt15iterator_traitsIT_E15difference_typeES6_S6_St26random_access_iterator_tag
FNDA:11,_ZSt10__distanceIPKSt6vectorIiSaIiEEENSt15iterator_traitsIT_E15difference_typeES6_S6_St26random_access_iterator_tag
FN:98,_ZSt10__distanceIPKiENSt15iterator_traitsIT_E15difference_typeES3_S3_St26random_access_iterator_tag
FNDA:203,_ZSt10__distanceIPKiENSt15iterator_traitsIT_E15difference_typeES3_S3_St26random_access_iterator_tag
FN:138,_ZSt8distanceISt13move_iteratorIN9__gnu_cxx17__normal_iteratorIPiSt6vectorIiSaIiEEEEEENSt15iterator_traitsIT_E15difference_typeESA_SA_
FNDA:11,_ZSt8distanceISt13move_iteratorIN9__gnu_cxx17__normal_iteratorIPiSt6vectorIiSaIiEEEEEENSt15iterator_traitsIT_E15difference_typeESA_SA_
FN:138,_ZSt8distanceIPKcENSt15iterator_traitsIT_E15difference_typeES3_S3_
FNDA:260423,_ZSt8distanceIPKcENSt15iterator_traitsIT_E15difference_typeES3_S3_
FN:138,_ZSt8distanceIPKSt4pairIiiEENSt15iterator_traitsIT_E15difference_typeES5_S5_
FNDA:1,_ZSt8distanceIPKSt4pairIiiEENSt15iterator_traitsIT_E15difference_typeES5_S5_
FN:138,_ZSt8distanceIPKSt6vectorIiSaIiEEENSt15iterator_traitsIT_E15difference_typeES6_S6_
FNDA:11,_ZSt8distanceIPKSt6vectorIiSaIiEEENSt15iterator_traitsIT_E15difference_typeES6_S6_
FN:138,_ZSt8distanceIPKiENSt15iterator_traitsIT_E15difference_typeES3_S3_
FNDA:203,_ZSt8distanceIPKiENSt15iterator_traitsIT_E15difference_typeES3_S3_
FN:174,_ZSt9__advanceIPKilEvRT_T0_St26random_access_iterator_tag
FNDA:21,_ZSt9__advanceIPKilEvRT_T0_St26random_access_iterator_tag
FN:202,_ZSt7advanceIPKimEvRT_T0_
FNDA:21,_ZSt7advanceIPKimEvRT_T0_
FNF:12
FNH:12
DA:98,11
DA:104,11
DA:98,260423
DA:104,260423
DA:98,1
DA:104,1
DA:98,11
DA:104,11
DA:98,203
DA:104,203
DA:138,11
DA:141,11
DA:142,22
DA:138,260423
DA:141,260423
DA:142,520846
DA:138,1
DA:141,1
DA:142,2
DA:138,11
DA:141,11
DA:142,22
DA:138,203
DA:141,203
DA:142,406
DA:174,21
DA:185,21
DA:186,21
DA:202,21
DA:205,21
DA:206,21
DA:207,21
LF:32
LH:32
end_of_record
SF:/Users/qylenett/Desktop/navigator/SimpleNavigator-v1.0/src/conteiners/s21_list.h
FN:19,_ZN3s214ListIiE4NodeIiEC1EiPS3_S4_
FNDA:789,_ZN3s214ListIiE4NodeIiEC1EiPS3_S4_
FN:218,_ZN3s214ListIiEC1Ev
FNDA:34,_ZN3s214ListIiEC1Ev
FN:252,_ZN3s214ListIiED1Ev
FNDA:34,_ZN3s214ListIiED1Ev
FN:299,_ZN3s214ListIiE5frontEv
FNDA:423,_ZN3s214ListIiE5frontEv
FN:303,_ZN3s214ListIiE4backEv
FNDA:332,_ZN3s214ListIiE4backEv
FN:315,_ZN3s214ListIiE5emptyEv
FNDA:789,_ZN3s214ListIiE5emptyEv
FN:319,_ZN3s214ListIiE4sizeEv
FNDA:789,_ZN3s214ListIiE4sizeEv
FN:327,_ZN3s214ListIiE5clearEv
FNDA:34,_ZN3s214ListIiE5clearEv
FN:331,_ZN3s214ListIiE9push_backERKi
FNDA:755,_ZN3s214ListIiE9push_backERKi
FN:361,_ZN3s214ListIiE8pop_backEv
FNDA:332,_ZN3s214ListIiE8pop_backEv
FN:377,_ZN3s214ListIiE9pop_frontEv
FNDA:423,_ZN3s214ListIiE9pop_frontEv
FNF:11
FNH:11
DA:19,789
DA:21,789
DA:22,789
DA:23,789
DA:24,789
DA:218,34
DA:219,34
DA:220,34
DA:221,34
DA:222,34
DA:252,34
DA:253,34
DA:254,34
DA:255,34
DA:299,423
DA:300,423
DA:303,332
DA:304,332
DA:315,789
DA:316,789
DA:319,789
DA:320,789
DA:327,34
DA:328,34
DA:329,34
DA:331,755
DA:332,755
DA:333,755
DA:334,755
DA:335,675
DA:336,675
DA:338,755
DA:339,755
DA:340,80
DA:342,755
DA:343,755
DA:361,332
DA:362,332
DA:363,332
DA:364,0
DA:365,332
DA:366,49
DA:367,49
DA:369,332
DA:370,283
DA:371,283
DA:373,332
DA:374,332
DA:377,423
DA:379,423
DA:380,423
DA:381,423
DA:382,423
DA:384,0
DA:386,423
DA:387,423
DA:388,423
LF:57
LH:55
end_of_record
SF:/usr/local/include/c++/10.3.0/bits/stl_pair.h
FN:352,_ZNSt4pairIiiEC1IiRiLb1EEEOT_OT0_
FNDA:450,_ZNSt4pairIiiEC1IiRiLb1EEEOT_OT0_
FN:352,_ZNSt4pairIiiEC1IiiLb1EEEOT_OT0_
FNDA:6,_ZNSt4pairIiiEC1IiiLb1EEEOT_OT0_
FN:352,_ZNSt4pairIiiEC1IRiS2_Lb1EEEOT_OT0_
FNDA:159,_ZNSt4pairIiiEC1IRiS2_Lb1EEEOT_OT0_
FN:401,_ZNSt4pairIiiEaSEOS0_
FNDA:2649,_ZNSt4pairIiiEaSEOS0_
FN:466,_ZSteqIiiEbRKSt4pairIT_T0_ES5_
FNDA:6,_ZSteqIiiEbRKSt4pairIT_T0_ES5_
FN:489,_ZStltIiiEbRKSt4pairIT_T0_ES5_
FNDA:2011,_ZStltIiiEbRKSt4pairIT_T0_ES5_
FN:567,_ZSt9make_pairIiiESt4pairINSt25__strip_reference_wrapperINSt5decayIT_E4typeEE6__typeENS1_INS2_IT0_E4typeEE6__typeEEOS3_OS8_
FNDA:6,_ZSt9make_pairIiiESt4pairINSt25__strip_reference_wrapperINSt5decayIT_E4typeEE6__typeENS1_INS2_IT0_E4typeEE6__typeEEOS3_OS8_
FNF:7
FNH:7
DA:352,450
DA:353,450
DA:352,6
DA:353,6
DA:352,159
DA:353,159
DA:401,2649
DA:408,2649
DA:409,2649
DA:410,2649
DA:466,6
DA:467,6
DA:489,2011
DA:490,2011
DA:491,2011
DA:567,6
DA:572,6
LF:17
LH:17
end_of_record
SF:/usr/local/include/c++/10.3.0/bits/stl_deque.h
FN:96,_ZSt16__deque_buf_sizem
FNDA:48,_ZSt16__deque_buf_sizem
FN:131,_ZNSt15_Deque_iteratorIiRiPiE14_S_buffer_sizeEv
FNDA:16,_ZNSt15_Deque_iteratorIiRiPiE14_S_buffer_sizeEv
FN:151,_ZNSt15_Deque_iteratorIiRiPiEC1Ev
FNDA:16,_ZNSt15_Deque_iteratorIiRiPiEC1Ev
FN:168,_ZNSt15_Deque_iteratorIiRiPiEC1ERKS2_
FNDA:84,_ZNSt15_Deque_iteratorIiRiPiEC1ERKS2_
FN:180,_ZNKSt15_Deque_iteratorIiRiPiEdeEv
FNDA:68,_ZNKSt15_Deque_iteratorIiRiPiEdeEv
FN:208,_ZNSt15_Deque_iteratorIiRiPiEmmEv
FNDA:68,_ZNSt15_Deque_iteratorIiRiPiEmmEv
FN:260,_ZNSt15_Deque_iteratorIiRiPiE11_M_set_nodeEPS1_
FNDA:16,_ZNSt15_Deque_iteratorIiRiPiE11_M_set_nodeEPS1_
FN:268,_ZSteqRKSt15_Deque_iteratorIiRiPiES4_
FNDA:76,_ZSteqRKSt15_Deque_iteratorIiRiPiES4_
FN:353,_ZStmiRKSt15_Deque_iteratorIiRiPiES4_
FNDA:0,_ZStmiRKSt15_Deque_iteratorIiRiPiES4_
FN:434,_ZNSt11_Deque_baseIiSaIiEEC2Ev
FNDA:8,_ZNSt11_Deque_baseIiSaIiEEC2Ev
FN:492,_ZNSt11_Deque_baseIiSaIiEE16_Deque_impl_dataC2Ev
FNDA:8,_ZNSt11_Deque_baseIiSaIiEE16_Deque_impl_dataC2Ev
FN:521,_ZNSt11_Deque_baseIiSaIiEE11_Deque_implC1Ev
FNDA:8,_ZNSt11_Deque_baseIiSaIiEE11_Deque_implC1Ev
FN:544,_ZNSt11_Deque_baseIiSaIiEE19_M_get_Tp_allocatorEv
FNDA:76,_ZNSt11_Deque_baseIiSaIiEE19_M_get_Tp_allocatorEv
FN:548,_ZNKSt11_Deque_baseIiSaIiEE19_M_get_Tp_allocatorEv
FNDA:16,_ZNKSt11_Deque_baseIiSaIiEE19_M_get_Tp_allocatorEv
FN:552,_ZNKSt11_Deque_baseIiSaIiEE20_M_get_map_allocatorEv
FNDA:16,_ZNKSt11_Deque_baseIiSaIiEE20_M_get_map_allocatorEv
FN:556,_ZNSt11_Deque_baseIiSaIiEE16_M_allocate_nodeEv
FNDA:8,_ZNSt11_Deque_baseIiSaIiEE16_M_allocate_nodeEv
FN:563,_ZNSt11_Deque_baseIiSaIiEE18_M_deallocate_nodeEPi
FNDA:8,_ZNSt11_Deque_baseIiSaIiEE18_M_deallocate_nodeEPi
FN:570,_ZNSt11_Deque_baseIiSaIiEE15_M_allocate_mapEm
FNDA:8,_ZNSt11_Deque_baseIiSaIiEE15_M_allocate_mapEm
FN:577,_ZNSt11_Deque_baseIiSaIiEE17_M_deallocate_mapEPPim
FNDA:8,_ZNSt11_Deque_baseIiSaIiEE17_M_deallocate_mapEPPim
FN:593,_ZNSt11_Deque_baseIiSaIiEED2Ev
FNDA:8,_ZNSt11_Deque_baseIiSaIiEED2Ev
FN:614,_ZNSt11_Deque_baseIiSaIiEE17_M_initialize_mapEm
FNDA:8,_ZNSt11_Deque_baseIiSaIiEE17_M_initialize_mapEm
FN:653,_ZNSt11_Deque_baseIiSaIiEE15_M_create_nodesEPPiS3_
FNDA:8,_ZNSt11_Deque_baseIiSaIiEE15_M_create_nodesEPPiS3_
FN:671,_ZNSt11_Deque_baseIiSaIiEE16_M_destroy_nodesEPPiS3_
FNDA:8,_ZNSt11_Deque_baseIiSaIiEE16_M_destroy_nodesEPPiS3_
FN:831,_ZNSt5dequeIiSaIiEEC1Ev
FNDA:8,_ZNSt5dequeIiSaIiEEC1Ev
FN:1003,_ZNSt5dequeIiSaIiEED1Ev
FNDA:8,_ZNSt5dequeIiSaIiEED1Ev
FN:1125,_ZNSt5dequeIiSaIiEE5beginEv
FNDA:8,_ZNSt5dequeIiSaIiEE5beginEv
FN:1142,_ZNSt5dequeIiSaIiEE3endEv
FNDA:76,_ZNSt5dequeIiSaIiEE3endEv
FN:1230,_ZNKSt5dequeIiSaIiEE4sizeEv
FNDA:0,_ZNKSt5dequeIiSaIiEE4sizeEv
FN:1235,_ZNKSt5dequeIiSaIiEE8max_sizeEv
FNDA:0,_ZNKSt5dequeIiSaIiEE8max_sizeEv
FN:1308,_ZNKSt5dequeIiSaIiEE5emptyEv
FNDA:76,_ZNKSt5dequeIiSaIiEE5emptyEv
FN:1424,_ZNSt5dequeIiSaIiEE4backEv
FNDA:68,_ZNSt5dequeIiSaIiEE4backEv
FN:1493,_ZNSt5dequeIiSaIiEE9push_backERKi
FNDA:68,_ZNSt5dequeIiSaIiEE9push_backERKi
FN:1552,_ZNSt5dequeIiSaIiEE8pop_backEv
FNDA:68,_ZNSt5dequeIiSaIiEE8pop_backEv
FN:1831,_ZNSt5dequeIiSaIiEE11_S_max_sizeERKS0_
FNDA:0,_ZNSt5dequeIiSaIiEE11_S_max_sizeERKS0_
FN:2042,_ZNSt5dequeIiSaIiEE15_M_destroy_dataESt15_Deque_iteratorIiRiPiES5_RKS0_
FNDA:8,_ZNSt5dequeIiSaIiEE15_M_destroy_dataESt15_Deque_iteratorIiRiPiES5_RKS0_
FN:2123,_ZNSt5dequeIiSaIiEE22_M_reserve_map_at_backEm
FNDA:0,_ZNSt5dequeIiSaIiEE22_M_reserve_map_at_backEm
FNF:36
FNH:31
DA:96,48
DA:98,48
DA:131,16
DA:132,16
DA:151,16
DA:152,16
DA:168,84
DA:169,84
DA:170,84
DA:180,68
DA:181,68
DA:208,68
DA:210,68
DA:212,0
DA:213,0
DA:215,68
DA:216,68
DA:260,16
DA:262,16
DA:263,16
DA:264,16
DA:265,16
DA:268,76
DA:269,76
DA:353,0
DA:355,0
DA:356,0
DA:357,0
DA:434,8
DA:435,8
DA:436,8
DA:492,8
DA:493,8
DA:494,8
DA:521,8
DA:523,8
DA:524,8
DA:544,76
DA:545,76
DA:548,16
DA:549,16
DA:552,16
DA:553,16
DA:556,8
DA:559,8
DA:563,8
DA:566,8
DA:567,8
DA:570,8
DA:572,16
DA:573,16
DA:577,8
DA:579,16
DA:580,8
DA:581,8
DA:593,8
DA:596,8
DA:598,8
DA:599,8
DA:600,8
DA:602,8
DA:614,8
DA:617,8
DA:620,16
DA:621,8
DA:622,8
DA:629,8
DA:630,8
DA:631,8
DA:634,8
DA:635,0
DA:637,0
DA:638,0
DA:639,0
DA:640,0
DA:643,8
DA:644,8
DA:645,8
DA:646,16
DA:647,8
DA:648,8
DA:649,8
DA:653,8
DA:659,16
DA:660,8
DA:662,0
DA:664,0
DA:665,0
DA:667,8
DA:671,8
DA:675,16
DA:676,8
DA:677,8
DA:831,8
DA:1003,8
DA:1004,8
DA:1125,8
DA:1126,8
DA:1142,76
DA:1143,76
DA:1230,0
DA:1231,0
DA:1235,0
DA:1236,0
DA:1308,76
DA:1309,76
DA:1424,68
DA:1427,68
DA:1428,68
DA:1429,68
DA:1493,68
DA:1495,68
DA:1496,68
DA:1498,68
DA:1500,68
DA:1503,0
DA:1504,68
DA:1552,68
DA:1555,68
DA:1556,68
DA:1558,68
DA:1559,68
DA:1563,0
DA:1564,68
DA:1831,0
DA:1833,0
DA:1834,0
DA:1835,0
DA:2042,8
DA:2047,8
DA:2123,0
DA:2125,0
DA:2126,0
DA:2127,0
DA:2128,0
LF:135
LH:106
end_of_record
SF:/usr/local/include/c++/10.3.0/bits/std_abs.h
FN:71,_ZSt3absd
FNDA:2740001,_ZSt3absd
FNF:1
FNH:1
DA:71,2740001
DA:72,2740001
LF:2
LH:2
end_of_record
SF:/usr/local/include/c++/10.3.0/bits/vector.tcc
FN:109,_ZNSt6vectorIS_IiSaIiEESaIS1_EE12emplace_backIJS1_EEERS1_DpOT_
FNDA:667,_ZNSt6vectorIS_IiSaIiEESaIS1_EE12emplace_backIJS1_EEERS1_DpOT_
FN:109,_ZNSt6vectorIiSaIiEE12emplace_backIJiEEERiDpOT_
FNDA:1281,_ZNSt6vectorIiSaIiEE12emplace_backIJiEEERiDpOT_
FN:109,_ZNSt6vectorISt4pairIiiESaIS1_EE12emplace_backIJS1_EEERS1_DpOT_
FNDA:456,_ZNSt6vectorISt4pairIiiESaIS1_EE12emplace_backIJS1_EEERS1_DpOT_
FN:198,_ZNSt6vectorIiSaIiEEaSERKS1_
FNDA:300000,_ZNSt6vectorIiSaIiEEaSERKS1_
FN:198,_ZNSt6vectorIS_IiSaIiEESaIS1_EEaSERKS3_
FNDA:40000,_ZNSt6vectorIS_IiSaIiEESaIS1_EEaSERKS3_
FN:300,_ZNSt6vectorIiSaIiEE13_M_assign_auxIPKiEEvT_S5_St20forward_iterator_tag
FNDA:34,_ZNSt6vectorIiSaIiEE13_M_assign_auxIPKiEEvT_S5_St20forward_iterator_tag
FN:426,_ZNSt6vectorIS_IiSaIiEESaIS1_EE17_M_realloc_insertIJS1_EEEvN9__gnu_cxx17__normal_iteratorIPS1_S3_EEDpOT_
FNDA:249,_ZNSt6vectorIS_IiSaIiEESaIS1_EE17_M_realloc_insertIJS1_EEEvN9__gnu_cxx17__normal_iteratorIPS1_S3_EEDpOT_
FN:426,_ZNSt6vectorIiSaIiEE17_M_realloc_insertIJiEEEvN9__gnu_cxx17__normal_iteratorIPiS1_EEDpOT_
FNDA:0,_ZNSt6vectorIiSaIiEE17_M_realloc_insertIJiEEEvN9__gnu_cxx17__normal_iteratorIPiS1_EEDpOT_
FN:426,_ZNSt6vectorISt4pairIiiESaIS1_EE17_M_realloc_insertIJS1_EEEvN9__gnu_cxx17__normal_iteratorIPS1_S3_EEDpOT_
FNDA:66,_ZNSt6vectorISt4pairIiiESaIS1_EE17_M_realloc_insertIJS1_EEEvN9__gnu_cxx17__normal_iteratorIPS1_S3_EEDpOT_
FN:426,_ZNSt6vectorIiSaIiEE17_M_realloc_insertIJRKiEEEvN9__gnu_cxx17__normal_iteratorIPiS1_EEDpOT_
FNDA:183907,_ZNSt6vectorIiSaIiEE17_M_realloc_insertIJRKiEEEvN9__gnu_cxx17__normal_iteratorIPiS1_EEDpOT_
FN:509,_ZNSt6vectorIS_IiSaIiEESaIS1_EE14_M_fill_insertEN9__gnu_cxx17__normal_iteratorIPS1_S3_EEmRKS1_
FNDA:55,_ZNSt6vectorIS_IiSaIiEESaIS1_EE14_M_fill_insertEN9__gnu_cxx17__normal_iteratorIPS1_S3_EEmRKS1_
FN:687,_ZNSt6vectorIiSaIiEE16_M_shrink_to_fitEv
FNDA:13,_ZNSt6vectorIiSaIiEE16_M_shrink_to_fitEv
FNF:12
FNH:11
DA:109,667
DA:112,667
DA:115,418
DA:117,418
DA:121,249
DA:123,667
DA:109,1281
DA:112,1281
DA:115,219
DA:117,219
DA:121,1062
DA:123,1281
DA:109,456
DA:112,456
DA:115,390
DA:117,390
DA:121,66
DA:123,456
DA:198,300000
DA:201,300000
DA:205,300000
DA:207,0
DA:208,0
DA:211,0
DA:212,0
DA:213,0
DA:214,0
DA:215,0
DA:216,0
DA:217,0
DA:219,0
DA:220,0
DA:223,300000
DA:224,300000
DA:226,0
DA:228,0
DA:229,0
DA:230,0
DA:231,0
DA:232,0
DA:233,0
DA:234,0
DA:236,300000
DA:238,300000
DA:239,300000
DA:243,0
DA:245,0
DA:246,0
DA:248,0
DA:250,300000
DA:252,300000
DA:198,40000
DA:201,40000
DA:205,40000
DA:207,0
DA:208,0
DA:211,0
DA:212,0
DA:213,0
DA:214,0
DA:215,0
DA:216,0
DA:217,0
DA:219,0
DA:220,0
DA:223,40000
DA:224,40000
DA:226,0
DA:228,0
DA:229,0
DA:230,0
DA:231,0
DA:232,0
DA:233,0
DA:234,0
DA:236,40000
DA:238,40000
DA:239,40000
DA:243,0
DA:245,0
DA:246,0
DA:248,0
DA:250,40000
DA:252,40000
DA:300,34
DA:304,34
DA:306,34
DA:308,13
DA:309,13
DA:310,13
DA:311,13
DA:313,13
DA:314,13
DA:315,13
DA:316,13
DA:317,13
DA:318,13
DA:320,21
DA:321,0
DA:324,21
DA:325,21
DA:326,21
DA:327,21
DA:329,21
DA:330,21
DA:332,21
DA:335,34
DA:426,249
DA:436,249
DA:437,249
DA:438,249
DA:439,249
DA:440,249
DA:441,249
DA:449,249
DA:450,249
DA:456,249
DA:461,249
DA:462,249
DA:464,249
DA:466,249
DA:467,249
DA:500,249
DA:501,249
DA:502,249
DA:503,249
DA:504,249
DA:505,249
DA:426,0
DA:436,0
DA:437,0
DA:438,0
DA:439,0
DA:440,0
DA:441,0
DA:449,0
DA:450,0
DA:456,0
DA:461,0
DA:462,0
DA:464,0
DA:466,0
DA:467,0
DA:500,0
DA:501,0
DA:502,0
DA:503,0
DA:504,0
DA:505,0
DA:426,66
DA:436,66
DA:437,66
DA:438,66
DA:439,66
DA:440,66
DA:441,66
DA:449,66
DA:450,66
DA:456,66
DA:461,66
DA:462,66
DA:464,66
DA:466,66
DA:467,66
DA:500,66
DA:501,66
DA:502,66
DA:503,66
DA:504,66
DA:505,66
DA:426,183907
DA:436,183907
DA:437,183907
DA:438,183907
DA:439,183907
DA:440,183907
DA:441,183907
DA:449,183907
DA:450,183907
DA:456,183907
DA:461,183907
DA:462,183907
DA:464,183907
DA:466,183907
DA:467,183907
DA:500,183907
DA:501,183907
DA:502,183907
DA:503,183907
DA:504,183907
DA:505,183907
DA:509,55
DA:512,55
DA:514,55
DA:515,55
DA:520,0
DA:521,0
DA:523,0
DA:524,0
DA:525,0
DA:528,0
DA:531,0
DA:532,0
DA:534,0
DA:536,0
DA:542,0
DA:543,0
DA:546,0
DA:548,0
DA:550,0
DA:551,0
DA:553,0
DA:559,55
DA:560,55
DA:561,55
DA:562,55
DA:566,55
DA:568,55
DA:569,55
DA:573,55
DA:574,55
DA:576,55
DA:580,55
DA:581,55
DA:583,0
DA:585,0
DA:586,0
DA:587,0
DA:588,0
DA:590,0
DA:591,0
DA:592,0
DA:593,0
DA:595,55
DA:596,55
DA:598,55
DA:599,55
DA:600,55
DA:601,55
DA:602,55
DA:603,55
DA:606,55
DA:687,13
DA:690,13
DA:691,2
DA:693,11
LF:246
LH:152
end_of_record
SF:/Users/qylenett/Desktop/navigator/SimpleNavigator-v1.0/src/s21_graph/s21_graph.cc
FN:13,_ZN3s219s21_Graph18getAdjacencyMatrixEv
FNDA:31,_ZN3s219s21_Graph18getAdjacencyMatrixEv
FN:24,_ZN3s219s21_Graph12getEdgesListEv
FNDA:1,_ZN3s219s21_Graph12getEdgesListEv
FN:39,_ZN3s219s21_Graph14get_graph_sizeEv
FNDA:126032,_ZN3s219s21_Graph14get_graph_sizeEv
FN:50,_ZN3s219s21_Graph16getAdjacencyListEv
FNDA:42,_ZN3s219s21_Graph16getAdjacencyListEv
FN:87,_ZN3s219s21_Graph9CheckFileERKNSt7__cxx1112basic_stringIcSt11char_traitsIcESaIcEEE
FNDA:69,_ZN3s219s21_Graph9CheckFileERKNSt7__cxx1112basic_stringIcSt11char_traitsIcESaIcEEE
FN:130,_ZN3s219s21_Graph17LoadGraphFromFileENSt7__cxx1112basic_stringIcSt11char_traitsIcESaIcEEE
FNDA:61,_ZN3s219s21_Graph17LoadGraphFromFileENSt7__cxx1112basic_stringIcSt11char_traitsIcESaIcEEE
FN:173,_ZN3s219s21_Graph8FindPathERS0_i
FNDA:8,_ZN3s219s21_Graph8FindPathERS0_i
FN:213,_ZN3s219s21_Graph20MakeMatrixUndirectedERS0_
FNDA:4,_ZN3s219s21_Graph20MakeMatrixUndirectedERS0_
FN:228,_ZN3s219s21_Graph11IsDerrectedESt6vectorIS1_IiSaIiEESaIS3_EE
FNDA:8,_ZN3s219s21_Graph11IsDerrectedESt6vectorIS1_IiSaIiEESaIS3_EE
FN:244,_ZN3s219s21_Graph16IsGraphConnectedERS0_NSt7__cxx1112basic_stringIcSt11char_traitsIcESaIcEEE
FNDA:8,_ZN3s219s21_Graph16IsGraphConnectedERS0_NSt7__cxx1112basic_stringIcSt11char_traitsIcESaIcEEE
FN:263,_ZN3s219s21_Graph16ExportGraphToDotENSt7__cxx1112basic_stringIcSt11char_traitsIcESaIcEEE
FNDA:4,_ZN3s219s21_Graph16ExportGraphToDotENSt7__cxx1112basic_stringIcSt11char_traitsIcESaIcEEE
FNF:11
FNH:11
DA:13,31
DA:14,31
DA:15,31
DA:24,1
DA:25,4
DA:26,12
DA:28,9
DA:30,6
DA:34,1
DA:39,126032
DA:50,42
DA:51,42
DA:52,497
DA:53,9592
DA:54,9137
DA:55,1214
DA:59,42
DA:87,69
DA:88,138
DA:89,69
DA:90,2
DA:94,67
DA:95,0
DA:97,67
DA:98,67
DA:99,4
DA:102,126
DA:104,63
DA:105,63
DA:106,18653
DA:107,18590
DA:108,667
DA:110,18590
DA:111,18590
DA:112,18590
DA:113,662
DA:114,662
DA:117,63
DA:118,8
DA:120,55
DA:121,55
DA:130,61
DA:131,122
DA:133,61
DA:134,2
DA:136,2
DA:141,61
DA:142,4
DA:144,6
DA:147,61
DA:149,61
DA:150,3
DA:152,3
DA:155,58
DA:156,122
DA:158,722
DA:159,19246
DA:161,18582
DA:162,18582
DA:165,58
DA:166,58
DA:173,8
DA:174,8
DA:175,16
DA:176,16
DA:178,8
DA:180,76
DA:181,68
DA:182,68
DA:183,89
DA:184,68
DA:185,21
DA:187,47
DA:188,94
DA:189,167
DA:190,120
DA:191,120
DA:192,120
DA:193,60
DA:197,16
DA:213,4
DA:214,28
DA:215,89
DA:216,65
DA:217,29
DA:218,29
DA:219,29
DA:223,4
DA:228,8
DA:230,35
DA:231,270
DA:232,243
DA:233,4
DA:237,4
DA:244,8
DA:245,8
DA:246,4
DA:247,4
DA:248,2
DA:251,4
DA:252,4
DA:253,4
DA:254,3
DA:255,3
DA:258,3
DA:263,4
DA:264,4
DA:265,4
DA:266,1
DA:267,1
DA:270,3
DA:271,12
DA:272,36
DA:273,27
DA:274,18
DA:278,3
DA:280,3
LF:117
LH:116
end_of_record
SF:/Users/qylenett/Desktop/navigator/SimpleNavigator-v1.0/src/s21_algorithms/s21_graph_algorithms.cc
FN:26,_ZN3s2115GraphAlgorithms16DepthFirstSearchERNS_9s21_GraphEi
FNDA:25,_ZN3s2115GraphAlgorithms16DepthFirstSearchERNS_9s21_GraphEi
FN:74,_ZN3s2115GraphAlgorithms18BreadthFirstSearchERNS_9s21_GraphEi
FNDA:18,_ZN3s2115GraphAlgorithms18BreadthFirstSearchERNS_9s21_GraphEi
FN:109,_ZN3s2115GraphAlgorithms12CheckVisitedESt6vectorIiSaIiEEi
FNDA:2735,_ZN3s2115GraphAlgorithms12CheckVisitedESt6vectorIiSaIiEEi
FN:153,_ZN3s2115GraphAlgorithms30GetShortestPathBetweenVerticesERNS_9s21_GraphEii
FNDA:18,_ZN3s2115GraphAlgorithms30GetShortestPathBetweenVerticesERNS_9s21_GraphEii
FN:213,_ZN3s2115GraphAlgorithms34GetShortestPathsBetweenAllVerticesERNS_9s21_GraphE
FNDA:5,_ZN3s2115GraphAlgorithms34GetShortestPathsBetweenAllVerticesERNS_9s21_GraphE
FN:272,_ZN3s2115GraphAlgorithms20GetLeastSpanningTreeERNS_9s21_GraphE
FNDA:5,_ZN3s2115GraphAlgorithms20GetLeastSpanningTreeERNS_9s21_GraphE
FN:321,_ZN3s2115GraphAlgorithms12IsAllVisitedESt6vectorIbSaIbEE
FNDA:113,_ZN3s2115GraphAlgorithms12IsAllVisitedESt6vectorIbSaIbEE
FN:334,_ZN3s2115GraphAlgorithms19ConvertToUndirectedESt6vectorIS1_IiSaIiEESaIS3_EE
FNDA:5,_ZN3s2115GraphAlgorithms19ConvertToUndirectedESt6vectorIS1_IiSaIiEESaIS3_EE
FN:356,_ZN3s2115GraphAlgorithms16GetMinCoordinatsESt6vectorIS1_IiSaIiEESaIS3_EE
FNDA:159,_ZN3s2115GraphAlgorithms16GetMinCoordinatsESt6vectorIS1_IiSaIiEESaIS3_EE
FN:376,_ZN3s2115GraphAlgorithms13GetGraphWeigtESt6vectorIS1_IiSaIiEESaIS3_EE
FNDA:40079,_ZN3s2115GraphAlgorithms13GetGraphWeigtESt6vectorIS1_IiSaIiEESaIS3_EE
FN:387,_ZN3s2115GraphAlgorithms29SolveTravelingSalesmanProblemERNS_9s21_GraphE
FNDA:2,_ZN3s2115GraphAlgorithms29SolveTravelingSalesmanProblemERNS_9s21_GraphE
FN:486,_ZN3s2115GraphAlgorithms21CreateProbabilityPathERSt6vectorIdSaIdEES1_IS3_SaIS3_EES1_IS1_IiSaIiEESaIS8_EEi
FNDA:300000,_ZN3s2115GraphAlgorithms21CreateProbabilityPathERSt6vectorIdSaIdEES1_IS3_SaIS3_EES1_IS1_IiSaIiEESaIS8_EEi
FN:526,_ZNK3s2115GraphAlgorithms12VertexRandomEdd
FNDA:260000,_ZNK3s2115GraphAlgorithms12VertexRandomEdd
FN:534,_ZN3s2115GraphAlgorithms16SelectNextVertexESt6vectorIdSaIdEE
FNDA:260000,_ZN3s2115GraphAlgorithms16SelectNextVertexESt6vectorIdSaIdEE
FN:549,_ZN3s2115GraphAlgorithms26RecalculatePheramoneMatrixERSt6vectorIS1_IdSaIdEESaIS3_EES1_IS1_IiSaIiEESaIS8_EEi
FNDA:40000,_ZN3s2115GraphAlgorithms26RecalculatePheramoneMatrixERSt6vectorIS1_IdSaIdEESaIS3_EES1_IS1_IiSaIiEESaIS8_EEi
FN:580,_ZN3s2115GraphAlgorithms14PrintResultWayESt6vectorIiSaIiEE
FNDA:0,_ZN3s2115GraphAlgorithms14PrintResultWayESt6vectorIiSaIiEE
FN:605,_ZN3s2115GraphAlgorithms20PrintAdjacencyMatrixESt6vectorIS1_IiSaIiEESaIS3_EE
FNDA:0,_ZN3s2115GraphAlgorithms20PrintAdjacencyMatrixESt6vectorIS1_IiSaIiEESaIS3_EE
FNF:17
FNH:15
DA:26,25
DA:28,25
DA:29,4
DA:31,21
DA:32,42
DA:33,42
DA:35,21
DA:37,353
DA:38,332
DA:39,332
DA:40,332
DA:41,119
DA:44,426
DA:45,213
DA:47,777
DA:48,564
DA:49,311
DA:53,42
DA:74,18
DA:76,18
DA:77,5
DA:79,13
DA:80,26
DA:81,26
DA:83,13
DA:84,436
DA:85,423
DA:86,423
DA:87,423
DA:88,168
DA:90,1839
DA:91,1416
DA:92,1416
DA:93,410
DA:98,13
DA:99,26
DA:109,2735
DA:111,50821
DA:112,49719
DA:113,1633
DA:116,1102
DA:153,18
DA:156,18
DA:157,18
DA:159,2
DA:162,32
DA:163,16
DA:164,16
DA:166,32
DA:167,16
DA:168,32
DA:170,18
DA:171,16
DA:173,466
DA:174,450
DA:175,450
DA:176,450
DA:178,450
DA:180,15769
DA:181,15411
DA:182,15411
DA:183,434
DA:184,434
DA:189,16
DA:190,2
DA:192,28
DA:213,5
DA:214,5
DA:215,5
DA:216,96
DA:217,3207
DA:218,141010
DA:219,137894
DA:220,3030
DA:221,2768
DA:224,260810
DA:225,125946
DA:226,84524
DA:227,71192
DA:228,142384
DA:229,213576
DA:235,91
DA:236,3116
DA:237,3030
DA:238,147
DA:242,5
DA:272,5
DA:274,10
DA:275,5
DA:276,10
DA:277,5
DA:278,15
DA:279,5
DA:280,20
DA:282,5
DA:283,5
DA:284,113
DA:285,4110
DA:287,4002
DA:288,121827
DA:289,119322
DA:290,1270
DA:295,108
DA:297,108
DA:298,51
DA:299,51
DA:302,108
DA:303,74
DA:304,74
DA:305,74
DA:306,74
DA:307,74
DA:309,74
DA:312,10
DA:321,113
DA:322,1942
DA:323,1937
DA:324,108
DA:327,5
DA:334,5
DA:336,5
DA:337,10
DA:338,84
DA:339,1401
DA:340,1322
DA:341,148
DA:342,148
DA:343,148
DA:348,5
DA:356,159
DA:358,159
DA:359,6158
DA:360,291302
DA:361,285303
DA:362,459
DA:363,459
DA:364,459
DA:368,159
DA:369,159
DA:376,40079
DA:377,40079
DA:378,342802
DA:379,3169534
DA:380,2866811
DA:383,40079
DA:387,2
DA:390,2
DA:393,2
DA:396,4
DA:397,4
DA:400,6
DA:403,2
DA:404,2
DA:405,2
DA:407,2
DA:410,40002
DA:411,40000
DA:413,40000
DA:414,40000
DA:415,40000
DA:418,40000
DA:421,120000
DA:423,40000
DA:426,80000
DA:429,340000
DA:432,3040000
DA:433,2740000
DA:437,600000
DA:440,300000
DA:443,300000
DA:447,300000
DA:448,260000
DA:451,260000
DA:452,260000
DA:453,0
DA:455,260000
DA:456,260000
DA:464,40000
DA:465,40000
DA:466,40000
DA:467,40000
DA:468,40000
DA:469,40000
DA:472,40000
DA:473,13
DA:474,13
DA:477,13
DA:478,13
DA:482,4
DA:486,300000
DA:490,300000
DA:491,300000
DA:492,300000
DA:495,300000
DA:496,300000
DA:497,300000
DA:500,3040000
DA:501,2740000
DA:502,1200000
DA:507,3040000
DA:508,2740000
DA:509,1200000
DA:510,1200000
DA:515,300000
DA:516,3040000
DA:517,2740000
DA:518,2740000
DA:519,578208
DA:522,300000
DA:526,260000
DA:527,520000
DA:528,260000
DA:529,260000
DA:530,520000
DA:534,260000
DA:535,260000
DA:536,260000
DA:537,260000
DA:538,260000
DA:539,260000
DA:541,1610009
DA:542,1350009
DA:543,1350009
DA:546,260000
DA:549,40000
DA:551,40000
DA:552,40000
DA:555,40000
DA:556,40000
DA:558,40000
DA:559,40000
DA:560,340000
DA:561,3040000
DA:562,2740000
DA:563,300000
DA:565,2440000
DA:570,40000
DA:580,0
DA:582,0
DA:583,0
DA:584,0
DA:586,0
DA:588,0
DA:591,0
DA:605,0
DA:607,0
DA:608,0
DA:609,0
DA:610,0
DA:611,0
DA:613,0
DA:615,0
LF:252
LH:236
end_of_record
SF:/usr/local/include/gtest/internal/gtest-port.h
FN:973,_ZN7testing8internal8GTestLog9GetStreamEv
FNDA:0,_ZN7testing8internal8GTestLog9GetStreamEv
FNF:1
FNH:0
DA:973,0
LF:1
LH:0
end_of_record
SF:/usr/local/include/gtest/gtest.h
FN:244,_ZN7testing4Test14SetUpTestSuiteEv
FNDA:0,_ZN7testing4Test14SetUpTestSuiteEv
FN:252,_ZN7testing4Test17TearDownTestSuiteEv
FNDA:0,_ZN7testing4Test17TearDownTestSuiteEv
FN:257,_ZN7testing4Test16TearDownTestCaseEv
FNDA:0,_ZN7testing4Test16TearDownTestCaseEv
FN:258,_ZN7testing4Test13SetUpTestCaseEv
FNDA:0,_ZN7testing4Test13SetUpTestCaseEv
FN:339,_ZN7testing4Test5SetupEv
FNDA:0,_ZN7testing4Test5SetupEv
FN:1343,_ZN7testing8internal18CmpHelperEQFailureIbbEENS_15AssertionResultEPKcS4_RKT_RKT0_
FNDA:0,_ZN7testing8internal18CmpHelperEQFailureIbbEENS_15AssertionResultEPKcS4_RKT_RKT0_
FN:1343,_ZN7testing8internal18CmpHelperEQFailureIiiEENS_15AssertionResultEPKcS4_RKT_RKT0_
FNDA:0,_ZN7testing8internal18CmpHelperEQFailureIiiEENS_15AssertionResultEPKcS4_RKT_RKT0_
FN:1343,_ZN7testing8internal18CmpHelperEQFailureISt6vectorIS2_IiSaIiEESaIS4_EES6_EENS_15AssertionResultEPKcS9_RKT_RKT0_
FNDA:0,_ZN7testing8internal18CmpHelperEQFailureISt6vectorIS2_IiSaIiEESaIS4_EES6_EENS_15AssertionResultEPKcS9_RKT_RKT0_
FN:1343,_ZN7testing8internal18CmpHelperEQFailureISt6vectorISt4pairIiiESaIS4_EES6_EENS_15AssertionResultEPKcS9_RKT_RKT0_
FNDA:0,_ZN7testing8internal18CmpHelperEQFailureISt6vectorISt4pairIiiESaIS4_EES6_EENS_15AssertionResultEPKcS9_RKT_RKT0_
FN:1343,_ZN7testing8internal18CmpHelperEQFailureIidEENS_15AssertionResultEPKcS4_RKT_RKT0_
FNDA:0,_ZN7testing8internal18CmpHelperEQFailureIidEENS_15AssertionResultEPKcS4_RKT_RKT0_
FN:1362,_ZN7testing8internal11CmpHelperEQIbbEENS_15AssertionResultEPKcS4_RKT_RKT0_
FNDA:13,_ZN7testing8internal11CmpHelperEQIbbEENS_15AssertionResultEPKcS4_RKT_RKT0_
FN:1362,_ZN7testing8internal11CmpHelperEQISt6vectorISt4pairIiiESaIS4_EES6_EENS_15AssertionResultEPKcS9_RKT_RKT0_
FNDA:1,_ZN7testing8internal11CmpHelperEQISt6vectorISt4pairIiiESaIS4_EES6_EENS_15AssertionResultEPKcS9_RKT_RKT0_
FN:1362,_ZN7testing8internal11CmpHelperEQISt6vectorIS2_IiSaIiEESaIS4_EES6_EENS_15AssertionResultEPKcS9_RKT_RKT0_
FNDA:6,_ZN7testing8internal11CmpHelperEQISt6vectorIS2_IiSaIiEESaIS4_EES6_EENS_15AssertionResultEPKcS9_RKT_RKT0_
FN:1362,_ZN7testing8internal11CmpHelperEQIiiEENS_15AssertionResultEPKcS4_RKT_RKT0_
FNDA:3197,_ZN7testing8internal11CmpHelperEQIiiEENS_15AssertionResultEPKcS4_RKT_RKT0_
FN:1362,_ZN7testing8internal11CmpHelperEQIidEENS_15AssertionResultEPKcS4_RKT_RKT0_
FNDA:1,_ZN7testing8internal11CmpHelperEQIidEENS_15AssertionResultEPKcS4_RKT_RKT0_
FN:1382,_ZN7testing8internal8EqHelper7CompareIidLPv0EEENS_15AssertionResultEPKcS6_RKT_RKT0_
FNDA:1,_ZN7testing8internal8EqHelper7CompareIidLPv0EEENS_15AssertionResultEPKcS6_RKT_RKT0_
FN:1382,_ZN7testing8internal8EqHelper7CompareIbbLPv0EEENS_15AssertionResultEPKcS6_RKT_RKT0_
FNDA:13,_ZN7testing8internal8EqHelper7CompareIbbLPv0EEENS_15AssertionResultEPKcS6_RKT_RKT0_
FN:1382,_ZN7testing8internal8EqHelper7CompareISt6vectorISt4pairIiiESaIS5_EES7_LPv0EEENS_15AssertionResultEPKcSB_RKT_RKT0_
FNDA:1,_ZN7testing8internal8EqHelper7CompareISt6vectorISt4pairIiiESaIS5_EES7_LPv0EEENS_15AssertionResultEPKcSB_RKT_RKT0_
FN:1382,_ZN7testing8internal8EqHelper7CompareISt6vectorIS3_IiSaIiEESaIS5_EES7_LPv0EEENS_15AssertionResultEPKcSB_RKT_RKT0_
FNDA:6,_ZN7testing8internal8EqHelper7CompareISt6vectorIS3_IiSaIiEESaIS5_EES7_LPv0EEENS_15AssertionResultEPKcSB_RKT_RKT0_
FN:1382,_ZN7testing8internal8EqHelper7CompareIiiLPv0EEENS_15AssertionResultEPKcS6_RKT_RKT0_
FNDA:3197,_ZN7testing8internal8EqHelper7CompareIiiLPv0EEENS_15AssertionResultEPKcS6_RKT_RKT0_
FN:2310,_Z13RUN_ALL_TESTSv
FNDA:1,_Z13RUN_ALL_TESTSv
FNF:21
FNH:11
DA:244,0
DA:252,0
DA:257,0
DA:258,0
DA:339,0
DA:1343,0
DA:1350,0
DA:1343,0
DA:1350,0
DA:1343,0
DA:1350,0
DA:1343,0
DA:1350,0
DA:1343,0
DA:1350,0
DA:1362,1
DA:1366,1
DA:1367,1
DA:1370,0
DA:1362,13
DA:1366,13
DA:1367,13
DA:1370,0
DA:1362,1
DA:1366,1
DA:1367,1
DA:1370,0
DA:1362,6
DA:1366,6
DA:1367,6
DA:1370,0
DA:1362,3197
DA:1366,3197
DA:1367,3197
DA:1370,0
DA:1382,1
DA:1385,1
DA:1382,13
DA:1385,13
DA:1382,1
DA:1385,1
DA:1382,6
DA:1385,6
DA:1382,3197
DA:1385,3197
DA:2310,1
DA:2311,1
LF:47
LH:27
end_of_record
SF:/usr/local/include/c++/10.3.0/initializer_list
FN:71,_ZNKSt16initializer_listISt4pairIiiEE4sizeEv
FNDA:1,_ZNKSt16initializer_listISt4pairIiiEE4sizeEv
FN:71,_ZNKSt16initializer_listISt6vectorIiSaIiEEE4sizeEv
FNDA:11,_ZNKSt16initializer_listISt6vectorIiSaIiEEE4sizeEv
FN:71,_ZNKSt16initializer_listIiE4sizeEv
FNDA:203,_ZNKSt16initializer_listIiE4sizeEv
FN:75,_ZNKSt16initializer_listISt4pairIiiEE5beginEv
FNDA:2,_ZNKSt16initializer_listISt4pairIiiEE5beginEv
FN:75,_ZNKSt16initializer_listISt6vectorIiSaIiEEE5beginEv
FNDA:22,_ZNKSt16initializer_listISt6vectorIiSaIiEEE5beginEv
FN:75,_ZNKSt16initializer_listIiE5beginEv
FNDA:406,_ZNKSt16initializer_listIiE5beginEv
FN:79,_ZNKSt16initializer_listISt4pairIiiEE3endEv
FNDA:1,_ZNKSt16initializer_listISt4pairIiiEE3endEv
FN:79,_ZNKSt16initializer_listISt6vectorIiSaIiEEE3endEv
FNDA:11,_ZNKSt16initializer_listISt6vectorIiSaIiEEE3endEv
FN:79,_ZNKSt16initializer_listIiE3endEv
FNDA:203,_ZNKSt16initializer_listIiE3endEv
FNF:9
FNH:9
DA:71,1
DA:71,11
DA:71,203
DA:75,2
DA:75,22
DA:75,406
DA:79,1
DA:79,11
DA:79,203
LF:9
LH:9
end_of_record
SF:/usr/local/include/c++/10.3.0/new
FN:174,_ZnwmPv
FNDA:6753542,_ZnwmPv
FN:180,_ZdlPvS_
FNDA:0,_ZdlPvS_
FNF:2
FNH:1
DA:174,6753542
DA:175,6753542
DA:180,0
LF:3
LH:2
end_of_record
SF:/Users/qylenett/Desktop/navigator/SimpleNavigator-v1.0/src/tests/bfs_tests.cc
FN:4,_ZN3s2173GraphAlgorithmsTest_test_BFS_simple_graph_3_check_all_vert_and_throw_TestC1Ev
FNDA:1,_ZN3s2173GraphAlgorithmsTest_test_BFS_simple_graph_3_check_all_vert_and_throw_TestC1Ev
FN:4,_ZN3s2173GraphAlgorithmsTest_test_BFS_simple_graph_3_check_all_vert_and_throw_Test8TestBodyEv
FNDA:1,_ZN3s2173GraphAlgorithmsTest_test_BFS_simple_graph_3_check_all_vert_and_throw_Test8TestBodyEv
FN:4,_ZN3s2173GraphAlgorithmsTest_test_BFS_simple_graph_3_check_all_vert_and_throw_TestD0Ev
FNDA:1,_ZN3s2173GraphAlgorithmsTest_test_BFS_simple_graph_3_check_all_vert_and_throw_TestD0Ev
FN:4,_ZN3s2173GraphAlgorithmsTest_test_BFS_simple_graph_3_check_all_vert_and_throw_TestD1Ev
FNDA:1,_ZN3s2173GraphAlgorithmsTest_test_BFS_simple_graph_3_check_all_vert_and_throw_TestD1Ev
FN:49,_ZN3s2171GraphAlgorithmsTest_test_BFS_simple_graph_13_check_verts_and_throw_TestC1Ev
FNDA:1,_ZN3s2171GraphAlgorithmsTest_test_BFS_simple_graph_13_check_verts_and_throw_TestC1Ev
FN:49,_ZN3s2171GraphAlgorithmsTest_test_BFS_simple_graph_13_check_verts_and_throw_Test8TestBodyEv
FNDA:1,_ZN3s2171GraphAlgorithmsTest_test_BFS_simple_graph_13_check_verts_and_throw_Test8TestBodyEv
FN:49,_ZN3s2171GraphAlgorithmsTest_test_BFS_simple_graph_13_check_verts_and_throw_TestD1Ev
FNDA:1,_ZN3s2171GraphAlgorithmsTest_test_BFS_simple_graph_13_check_verts_and_throw_TestD1Ev
FN:49,_ZN3s2171GraphAlgorithmsTest_test_BFS_simple_graph_13_check_verts_and_throw_TestD0Ev
FNDA:1,_ZN3s2171GraphAlgorithmsTest_test_BFS_simple_graph_13_check_verts_and_throw_TestD0Ev
FN:84,_ZN3s2161GraphAlgorithmsTest_test_BFS_directed_graph_8_check_vert_TestD0Ev
FNDA:1,_ZN3s2161GraphAlgorithmsTest_test_BFS_directed_graph_8_check_vert_TestD0Ev
FN:84,_ZN3s2161GraphAlgorithmsTest_test_BFS_directed_graph_8_check_vert_TestD1Ev
FNDA:1,_ZN3s2161GraphAlgorithmsTest_test_BFS_directed_graph_8_check_vert_TestD1Ev
FN:84,_ZN3s2161GraphAlgorithmsTest_test_BFS_directed_graph_8_check_vert_Test8TestBodyEv
FNDA:1,_ZN3s2161GraphAlgorithmsTest_test_BFS_directed_graph_8_check_vert_Test8TestBodyEv
FN:84,_ZN3s2161GraphAlgorithmsTest_test_BFS_directed_graph_8_check_vert_TestC1Ev
FNDA:1,_ZN3s2161GraphAlgorithmsTest_test_BFS_directed_graph_8_check_vert_TestC1Ev
FN:109,_ZN3s2167GraphAlgorithmsTest_test_BFS_directed_graph_21_check_big_graph_TestD0Ev
FNDA:1,_ZN3s2167GraphAlgorithmsTest_test_BFS_directed_graph_21_check_big_graph_TestD0Ev
FN:109,_ZN3s2167GraphAlgorithmsTest_test_BFS_directed_graph_21_check_big_graph_TestD1Ev
FNDA:1,_ZN3s2167GraphAlgorithmsTest_test_BFS_directed_graph_21_check_big_graph_TestD1Ev
FN:109,_ZN3s2167GraphAlgorithmsTest_test_BFS_directed_graph_21_check_big_graph_Test8TestBodyEv
FNDA:1,_ZN3s2167GraphAlgorithmsTest_test_BFS_directed_graph_21_check_big_graph_Test8TestBodyEv
FN:109,_ZN3s2167GraphAlgorithmsTest_test_BFS_directed_graph_21_check_big_graph_TestC1Ev
FNDA:1,_ZN3s2167GraphAlgorithmsTest_test_BFS_directed_graph_21_check_big_graph_TestC1Ev
FN:139,_ZN3s2161GraphAlgorithmsTest_test_BFS_weighted_graph_9_check_vert_TestC1Ev
FNDA:1,_ZN3s2161GraphAlgorithmsTest_test_BFS_weighted_graph_9_check_vert_TestC1Ev
FN:139,_ZN3s2161GraphAlgorithmsTest_test_BFS_weighted_graph_9_check_vert_TestD0Ev
FNDA:1,_ZN3s2161GraphAlgorithmsTest_test_BFS_weighted_graph_9_check_vert_TestD0Ev
FN:139,_ZN3s2161GraphAlgorithmsTest_test_BFS_weighted_graph_9_check_vert_TestD1Ev
FNDA:1,_ZN3s2161GraphAlgorithmsTest_test_BFS_weighted_graph_9_check_vert_TestD1Ev
FN:139,_ZN3s2161GraphAlgorithmsTest_test_BFS_weighted_graph_9_check_vert_Test8TestBodyEv
FNDA:1,_ZN3s2161GraphAlgorithmsTest_test_BFS_weighted_graph_9_check_vert_Test8TestBodyEv
FN:172,_ZN3s2148GraphAlgorithmsTest_test_BFS_very_big_graph_TestC1Ev
FNDA:1,_ZN3s2148GraphAlgorithmsTest_test_BFS_very_big_graph_TestC1Ev
FN:172,_ZN3s2148GraphAlgorithmsTest_test_BFS_very_big_graph_TestD0Ev
FNDA:1,_ZN3s2148GraphAlgorithmsTest_test_BFS_very_big_graph_TestD0Ev
FN:172,_ZN3s2148GraphAlgorithmsTest_test_BFS_very_big_graph_TestD1Ev
FNDA:1,_ZN3s2148GraphAlgorithmsTest_test_BFS_very_big_graph_TestD1Ev
FN:172,_ZN3s2148GraphAlgorithmsTest_test_BFS_very_big_graph_Test8TestBodyEv
FNDA:1,_ZN3s2148GraphAlgorithmsTest_test_BFS_very_big_graph_Test8TestBodyEv
FNF:24
FNH:24
DA:4,1
DA:4,1
DA:4,1
DA:4,1
DA:5,1
DA:6,1
DA:7,1
DA:8,1
DA:9,1
DA:10,1
DA:11,1
DA:12,1
DA:13,1
DA:14,4
DA:15,3
DA:18,1
DA:19,1
DA:20,1
DA:21,1
DA:22,1
DA:23,4
DA:24,3
DA:27,1
DA:28,1
DA:29,1
DA:30,1
DA:31,1
DA:32,4
DA:33,3
DA:36,1
DA:37,1
DA:38,1
DA:40,1
DA:41,1
DA:42,1
DA:44,1
DA:45,1
DA:46,1
DA:49,1
DA:49,1
DA:49,1
DA:49,1
DA:50,1
DA:51,1
DA:52,1
DA:53,1
DA:55,1
DA:56,1
DA:57,1
DA:58,1
DA:59,1
DA:61,14
DA:62,13
DA:65,1
DA:66,1
DA:67,1
DA:68,1
DA:69,1
DA:71,14
DA:72,13
DA:75,1
DA:76,1
DA:77,1
DA:79,1
DA:80,1
DA:81,1
DA:84,1
DA:84,1
DA:84,1
DA:84,1
DA:85,1
DA:86,1
DA:87,1
DA:88,1
DA:89,1
DA:90,1
DA:91,1
DA:92,1
DA:94,1
DA:95,9
DA:96,8
DA:99,1
DA:100,1
DA:101,1
DA:102,1
DA:103,1
DA:104,9
DA:105,8
DA:109,1
DA:109,1
DA:109,1
DA:109,1
DA:110,1
DA:111,1
DA:112,1
DA:113,1
DA:115,1
DA:116,1
DA:117,1
DA:118,1
DA:119,0
DA:120,1
DA:121,22
DA:122,21
DA:125,1
DA:126,1
DA:127,1
DA:128,1
DA:129,0
DA:130,1
DA:131,20
DA:132,19
DA:135,1
DA:136,1
DA:139,1
DA:139,1
DA:139,1
DA:139,1
DA:140,1
DA:141,1
DA:142,1
DA:143,1
DA:145,1
DA:146,1
DA:147,1
DA:148,1
DA:149,1
DA:150,10
DA:151,9
DA:153,1
DA:154,1
DA:155,1
DA:156,1
DA:157,1
DA:158,10
DA:159,9
DA:161,1
DA:162,1
DA:164,1
DA:165,1
DA:166,1
DA:167,10
DA:168,9
DA:172,1
DA:172,1
DA:172,1
DA:172,1
DA:173,1
DA:174,1
DA:175,1
DA:176,1
DA:177,1
DA:178,1
DA:179,1
DA:180,1
DA:181,0
DA:183,1
DA:184,51
DA:185,50
LF:159
LH:156
end_of_record
SF:/usr/local/include/c++/10.3.0/bits/stl_iterator.h
FN:975,_ZN9__gnu_cxx17__normal_iteratorIPiSt6vectorIiSaIiEEEC1ERKS1_
FNDA:1473099,_ZN9__gnu_cxx17__normal_iteratorIPiSt6vectorIiSaIiEEEC1ERKS1_
FN:975,_ZN9__gnu_cxx17__normal_iteratorIPKiSt6vectorIiSaIiEEEC1ERKS2_
FNDA:7907185,_ZN9__gnu_cxx17__normal_iteratorIPKiSt6vectorIiSaIiEEEC1ERKS2_
FN:975,_ZN9__gnu_cxx17__normal_iteratorIPSt4pairIiiESt6vectorIS2_SaIS2_EEEC1ERKS3_
FNDA:9789,_ZN9__gnu_cxx17__normal_iteratorIPSt4pairIiiESt6vectorIS2_SaIS2_EEEC1ERKS3_
FN:975,_ZN9__gnu_cxx17__normal_iteratorIPKSt4pairIiiESt6vectorIS2_SaIS2_EEEC1ERKS4_
FNDA:1837,_ZN9__gnu_cxx17__normal_iteratorIPKSt4pairIiiESt6vectorIS2_SaIS2_EEEC1ERKS4_
FN:975,_ZN9__gnu_cxx17__normal_iteratorIPKdSt6vectorIdSaIdEEEC1ERKS2_
FNDA:6000030,_ZN9__gnu_cxx17__normal_iteratorIPKdSt6vectorIdSaIdEEEC1ERKS2_
FN:975,_ZN9__gnu_cxx17__normal_iteratorIPKSt6vectorIiSaIiEES1_IS3_SaIS3_EEEC1ERKS5_
FNDA:840582,_ZN9__gnu_cxx17__normal_iteratorIPKSt6vectorIiSaIiEES1_IS3_SaIS3_EEEC1ERKS5_
FN:975,_ZN9__gnu_cxx17__normal_iteratorIPSt6vectorIiSaIiEES1_IS3_SaIS3_EEEC1ERKS4_
FNDA:121942,_ZN9__gnu_cxx17__normal_iteratorIPSt6vectorIiSaIiEES1_IS3_SaIS3_EEEC1ERKS4_
FN:975,_ZN9__gnu_cxx17__normal_iteratorIPKSt6vectorIdSaIdEES1_IS3_SaIS3_EEEC1ERKS5_
FNDA:600000,_ZN9__gnu_cxx17__normal_iteratorIPKSt6vectorIdSaIdEES1_IS3_SaIS3_EEEC1ERKS5_
FN:990,_ZNK9__gnu_cxx17__normal_iteratorIPKSt6vectorIdSaIdEES1_IS3_SaIS3_EEEdeEv
FNDA:2740000,_ZNK9__gnu_cxx17__normal_iteratorIPKSt6vectorIdSaIdEES1_IS3_SaIS3_EEEdeEv
FN:990,_ZNK9__gnu_cxx17__normal_iteratorIPKSt6vectorIiSaIiEES1_IS3_SaIS3_EEEdeEv
FNDA:3349415,_ZNK9__gnu_cxx17__normal_iteratorIPKSt6vectorIiSaIiEES1_IS3_SaIS3_EEEdeEv
FN:990,_ZNK9__gnu_cxx17__normal_iteratorIPSt6vectorIiSaIiEES1_IS3_SaIS3_EEEdeEv
FNDA:667,_ZNK9__gnu_cxx17__normal_iteratorIPSt6vectorIiSaIiEES1_IS3_SaIS3_EEEdeEv
FN:990,_ZNK9__gnu_cxx17__normal_iteratorIPKSt4pairIiiESt6vectorIS2_SaIS2_EEEdeEv
FNDA:906,_ZNK9__gnu_cxx17__normal_iteratorIPKSt4pairIiiESt6vectorIS2_SaIS2_EEEdeEv
FN:990,_ZNK9__gnu_cxx17__normal_iteratorIPSt4pairIiiESt6vectorIS2_SaIS2_EEEdeEv
FNDA:8640,_ZNK9__gnu_cxx17__normal_iteratorIPSt4pairIiiESt6vectorIS2_SaIS2_EEEdeEv
FN:990,_ZNK9__gnu_cxx17__normal_iteratorIPiSt6vectorIiSaIiEEEdeEv
FNDA:202011,_ZNK9__gnu_cxx17__normal_iteratorIPiSt6vectorIiSaIiEEEdeEv
FN:990,_ZNK9__gnu_cxx17__normal_iteratorIPKiSt6vectorIiSaIiEEEdeEv
FNDA:0,_ZNK9__gnu_cxx17__normal_iteratorIPKiSt6vectorIiSaIiEEEdeEv
FN:1000,_ZN9__gnu_cxx17__normal_iteratorIPiSt6vectorIiSaIiEEEppEv
FNDA:636,_ZN9__gnu_cxx17__normal_iteratorIPiSt6vectorIiSaIiEEEppEv
FN:1000,_ZN9__gnu_cxx17__normal_iteratorIPKSt6vectorIiSaIiEES1_IS3_SaIS3_EEEppEv
FNDA:3349415,_ZN9__gnu_cxx17__normal_iteratorIPKSt6vectorIiSaIiEES1_IS3_SaIS3_EEEppEv
FN:1000,_ZN9__gnu_cxx17__normal_iteratorIPSt6vectorIiSaIiEES1_IS3_SaIS3_EEEppEv
FNDA:0,_ZN9__gnu_cxx17__normal_iteratorIPSt6vectorIiSaIiEES1_IS3_SaIS3_EEEppEv
FN:1000,_ZN9__gnu_cxx17__normal_iteratorIPKSt6vectorIdSaIdEES1_IS3_SaIS3_EEEppEv
FNDA:2740000,_ZN9__gnu_cxx17__normal_iteratorIPKSt6vectorIdSaIdEES1_IS3_SaIS3_EEEppEv
FN:1000,_ZN9__gnu_cxx17__normal_iteratorIPKiSt6vectorIiSaIiEEEppEv
FNDA:0,_ZN9__gnu_cxx17__normal_iteratorIPKiSt6vectorIiSaIiEEEppEv
FN:1000,_ZN9__gnu_cxx17__normal_iteratorIPKSt4pairIiiESt6vectorIS2_SaIS2_EEEppEv
FNDA:6,_ZN9__gnu_cxx17__normal_iteratorIPKSt4pairIiiESt6vectorIS2_SaIS2_EEEppEv
FN:1014,_ZN9__gnu_cxx17__normal_iteratorIPSt4pairIiiESt6vectorIS2_SaIS2_EEEmmEv
FNDA:413,_ZN9__gnu_cxx17__normal_iteratorIPSt4pairIiiESt6vectorIS2_SaIS2_EEEmmEv
FN:1038,_ZNK9__gnu_cxx17__normal_iteratorIPSt4pairIiiESt6vectorIS2_SaIS2_EEEplEl
FNDA:6495,_ZNK9__gnu_cxx17__normal_iteratorIPSt4pairIiiESt6vectorIS2_SaIS2_EEEplEl
FN:1038,_ZNK9__gnu_cxx17__normal_iteratorIPiSt6vectorIiSaIiEEEplEl
FNDA:300000,_ZNK9__gnu_cxx17__normal_iteratorIPiSt6vectorIiSaIiEEEplEl
FN:1038,_ZNK9__gnu_cxx17__normal_iteratorIPSt6vectorIiSaIiEES1_IS3_SaIS3_EEEplEl
FNDA:40000,_ZNK9__gnu_cxx17__normal_iteratorIPSt6vectorIiSaIiEES1_IS3_SaIS3_EEEplEl
FN:1048,_ZNK9__gnu_cxx17__normal_iteratorIPiSt6vectorIiSaIiEEEmiEl
FNDA:1281,_ZNK9__gnu_cxx17__normal_iteratorIPiSt6vectorIiSaIiEEEmiEl
FN:1048,_ZNK9__gnu_cxx17__normal_iteratorIPSt6vectorIiSaIiEES1_IS3_SaIS3_EEEmiEl
FNDA:667,_ZNK9__gnu_cxx17__normal_iteratorIPSt6vectorIiSaIiEES1_IS3_SaIS3_EEEmiEl
FN:1048,_ZNK9__gnu_cxx17__normal_iteratorIPSt4pairIiiESt6vectorIS2_SaIS2_EEEmiEl
FNDA:906,_ZNK9__gnu_cxx17__normal_iteratorIPSt4pairIiiESt6vectorIS2_SaIS2_EEEmiEl
FN:1053,_ZNK9__gnu_cxx17__normal_iteratorIPKSt4pairIiiESt6vectorIS2_SaIS2_EEE4baseEv
FNDA:949,_ZNK9__gnu_cxx17__normal_iteratorIPKSt4pairIiiESt6vectorIS2_SaIS2_EEE4baseEv
FN:1053,_ZNK9__gnu_cxx17__normal_iteratorIPSt4pairIiiESt6vectorIS2_SaIS2_EEE4baseEv
FNDA:2890,_ZNK9__gnu_cxx17__normal_iteratorIPSt4pairIiiESt6vectorIS2_SaIS2_EEE4baseEv
FN:1053,_ZNK9__gnu_cxx17__normal_iteratorIPSt6vectorIiSaIiEES1_IS3_SaIS3_EEE4baseEv
FNDA:161216,_ZNK9__gnu_cxx17__normal_iteratorIPSt6vectorIiSaIiEES1_IS3_SaIS3_EEE4baseEv
FN:1053,_ZNK9__gnu_cxx17__normal_iteratorIPKiSt6vectorIiSaIiEEE4baseEv
FNDA:7907185,_ZNK9__gnu_cxx17__normal_iteratorIPKiSt6vectorIiSaIiEEE4baseEv
FN:1053,_ZNK9__gnu_cxx17__normal_iteratorIPKdSt6vectorIdSaIdEEE4baseEv
FNDA:0,_ZNK9__gnu_cxx17__normal_iteratorIPKdSt6vectorIdSaIdEEE4baseEv
FN:1053,_ZNK9__gnu_cxx17__normal_iteratorIPKSt6vectorIiSaIiEES1_IS3_SaIS3_EEE4baseEv
FNDA:7539412,_ZNK9__gnu_cxx17__normal_iteratorIPKSt6vectorIiSaIiEES1_IS3_SaIS3_EEE4baseEv
FN:1053,_ZNK9__gnu_cxx17__normal_iteratorIPiSt6vectorIiSaIiEEE4baseEv
FNDA:1340948,_ZNK9__gnu_cxx17__normal_iteratorIPiSt6vectorIiSaIiEEE4baseEv
FN:1053,_ZNK9__gnu_cxx17__normal_iteratorIPKSt6vectorIdSaIdEES1_IS3_SaIS3_EEE4baseEv
FNDA:6080000,_ZNK9__gnu_cxx17__normal_iteratorIPKSt6vectorIdSaIdEES1_IS3_SaIS3_EEE4baseEv
FN:1094,_ZN9__gnu_cxxeqIPKSt4pairIiiESt6vectorIS2_SaIS2_EEEEbRKNS_17__normal_iteratorIT_T0_EESD_
FNDA:466,_ZN9__gnu_cxxeqIPKSt4pairIiiESt6vectorIS2_SaIS2_EEEEbRKNS_17__normal_iteratorIT_T0_EESD_
FN:1094,_ZN9__gnu_cxxeqIPiSt6vectorIiSaIiEEEEbRKNS_17__normal_iteratorIT_T0_EESA_
FNDA:120,_ZN9__gnu_cxxeqIPiSt6vectorIiSaIiEEEEbRKNS_17__normal_iteratorIT_T0_EESA_
FN:1110,_ZN9__gnu_cxxneIPKiSt6vectorIiSaIiEEEEbRKNS_17__normal_iteratorIT_T0_EESB_
FNDA:0,_ZN9__gnu_cxxneIPKiSt6vectorIiSaIiEEEEbRKNS_17__normal_iteratorIT_T0_EESB_
FN:1110,_ZN9__gnu_cxxneIPiSt6vectorIiSaIiEEEEbRKNS_17__normal_iteratorIT_T0_EESA_
FNDA:68,_ZN9__gnu_cxxneIPiSt6vectorIiSaIiEEEEbRKNS_17__normal_iteratorIT_T0_EESA_
FN:1110,_ZN9__gnu_cxxneIPKSt4pairIiiESt6vectorIS2_SaIS2_EEEEbRKNS_17__normal_iteratorIT_T0_EESD_
FNDA:7,_ZN9__gnu_cxxneIPKSt4pairIiiESt6vectorIS2_SaIS2_EEEEbRKNS_17__normal_iteratorIT_T0_EESD_
FN:1110,_ZN9__gnu_cxxneIPKSt6vectorIdSaIdEES1_IS3_SaIS3_EEEEbRKNS_17__normal_iteratorIT_T0_EESD_
FNDA:3040000,_ZN9__gnu_cxxneIPKSt6vectorIdSaIdEES1_IS3_SaIS3_EEEEbRKNS_17__normal_iteratorIT_T0_EESD_
FN:1110,_ZN9__gnu_cxxneIPSt6vectorIiSaIiEES1_IS3_SaIS3_EEEEbRKNS_17__normal_iteratorIT_T0_EESC_
FNDA:40000,_ZN9__gnu_cxxneIPSt6vectorIiSaIiEES1_IS3_SaIS3_EEEEbRKNS_17__normal_iteratorIT_T0_EESC_
FN:1110,_ZN9__gnu_cxxneIPKSt6vectorIiSaIiEES1_IS3_SaIS3_EEEEbRKNS_17__normal_iteratorIT_T0_EESD_
FNDA:3729697,_ZN9__gnu_cxxneIPKSt6vectorIiSaIiEES1_IS3_SaIS3_EEEEbRKNS_17__normal_iteratorIT_T0_EESD_
FN:1199,_ZN9__gnu_cxxmiIPiSt6vectorIiSaIiEEEENS_17__normal_iteratorIT_T0_E15difference_typeERKS8_SB_
FNDA:185306,_ZN9__gnu_cxxmiIPiSt6vectorIiSaIiEEEENS_17__normal_iteratorIT_T0_E15difference_typeERKS8_SB_
FN:1199,_ZN9__gnu_cxxmiIPSt6vectorIiSaIiEES1_IS3_SaIS3_EEEENS_17__normal_iteratorIT_T0_E15difference_typeERKSA_SD_
FNDA:304,_ZN9__gnu_cxxmiIPSt6vectorIiSaIiEES1_IS3_SaIS3_EEEENS_17__normal_iteratorIT_T0_E15difference_typeERKSA_SD_
FN:1199,_ZN9__gnu_cxxmiIPSt4pairIiiESt6vectorIS2_SaIS2_EEEENS_17__normal_iteratorIT_T0_E15difference_typeERKSA_SD_
FNDA:1379,_ZN9__gnu_cxxmiIPSt4pairIiiESt6vectorIS2_SaIS2_EEEENS_17__normal_iteratorIT_T0_E15difference_typeERKSA_SD_
FN:1222,_ZSt12__niter_baseIPSt6vectorIiSaIiEES0_IS2_SaIS2_EEET_N9__gnu_cxx17__normal_iteratorIS6_T0_EE
FNDA:80000,_ZSt12__niter_baseIPSt6vectorIiSaIiEES0_IS2_SaIS2_EEET_N9__gnu_cxx17__normal_iteratorIS6_T0_EE
FN:1222,_ZSt12__niter_baseIPiSt6vectorIiSaIiEEET_N9__gnu_cxx17__normal_iteratorIS4_T0_EE
FNDA:600022,_ZSt12__niter_baseIPiSt6vectorIiSaIiEEET_N9__gnu_cxx17__normal_iteratorIS4_T0_EE
FN:1222,_ZSt12__niter_baseIPKSt4pairIiiESt6vectorIS1_SaIS1_EEET_N9__gnu_cxx17__normal_iteratorIS7_T0_EE
FNDA:3,_ZSt12__niter_baseIPKSt4pairIiiESt6vectorIS1_SaIS1_EEET_N9__gnu_cxx17__normal_iteratorIS7_T0_EE
FN:1222,_ZSt12__niter_baseIPKiSt6vectorIiSaIiEEET_N9__gnu_cxx17__normal_iteratorIS5_T0_EE
FNDA:7907185,_ZSt12__niter_baseIPKiSt6vectorIiSaIiEEET_N9__gnu_cxx17__normal_iteratorIS5_T0_EE
FN:1222,_ZSt12__niter_baseIPKdSt6vectorIdSaIdEEET_N9__gnu_cxx17__normal_iteratorIS5_T0_EE
FNDA:0,_ZSt12__niter_baseIPKdSt6vectorIdSaIdEEET_N9__gnu_cxx17__normal_iteratorIS5_T0_EE
FN:1222,_ZSt12__niter_baseIPKSt6vectorIiSaIiEES0_IS2_SaIS2_EEET_N9__gnu_cxx17__normal_iteratorIS7_T0_EE
FNDA:80018,_ZSt12__niter_baseIPKSt6vectorIiSaIiEES0_IS2_SaIS2_EEET_N9__gnu_cxx17__normal_iteratorIS7_T0_EE
FN:1323,_ZNSt13move_iteratorIN9__gnu_cxx17__normal_iteratorIPiSt6vectorIiSaIiEEEEEC1ES6_
FNDA:22,_ZNSt13move_iteratorIN9__gnu_cxx17__normal_iteratorIPiSt6vectorIiSaIiEEEEEC1ES6_
FN:1323,_ZNSt13move_iteratorIPSt6vectorIiSaIiEEEC1ES3_
FNDA:220,_ZNSt13move_iteratorIPSt6vectorIiSaIiEEEC1ES3_
FN:1341,_ZNKSt13move_iteratorIN9__gnu_cxx17__normal_iteratorIPiSt6vectorIiSaIiEEEEE4baseEv
FNDA:44,_ZNKSt13move_iteratorIN9__gnu_cxx17__normal_iteratorIPiSt6vectorIiSaIiEEEEE4baseEv
FN:1341,_ZNKSt13move_iteratorIPSt6vectorIiSaIiEEE4baseEv
FNDA:220,_ZNKSt13move_iteratorIPSt6vectorIiSaIiEEE4baseEv
FN:1357,_ZNKSt13move_iteratorIPSt6vectorIiSaIiEEEdeEv
FNDA:0,_ZNKSt13move_iteratorIPSt6vectorIiSaIiEEEdeEv
FN:1369,_ZNSt13move_iteratorIPSt6vectorIiSaIiEEEppEv
FNDA:0,_ZNSt13move_iteratorIPSt6vectorIiSaIiEEEppEv
FN:1533,_ZSteqIPSt6vectorIiSaIiEEEbRKSt13move_iteratorIT_ES8_
FNDA:110,_ZSteqIPSt6vectorIiSaIiEEEbRKSt13move_iteratorIT_ES8_
FN:1539,_ZStneIPSt6vectorIiSaIiEEEbRKSt13move_iteratorIT_ES8_
FNDA:110,_ZStneIPSt6vectorIiSaIiEEEbRKSt13move_iteratorIT_ES8_
FN:1571,_ZStmiIN9__gnu_cxx17__normal_iteratorIPiSt6vectorIiSaIiEEEES6_EDTmicldtfp_4baseEcldtfp0_4baseEERKSt13move_iteratorIT_ERKS8_IT0_E
FNDA:11,_ZStmiIN9__gnu_cxx17__normal_iteratorIPiSt6vectorIiSaIiEEEES6_EDTmicldtfp_4baseEcldtfp0_4baseEERKSt13move_iteratorIT_ERKS8_IT0_E
FN:1584,_ZSt18make_move_iteratorIPSt6vectorIiSaIiEEESt13move_iteratorIT_ES5_
FNDA:0,_ZSt18make_move_iteratorIPSt6vectorIiSaIiEEESt13move_iteratorIT_ES5_
FN:1592,_ZSt32__make_move_if_noexcept_iteratorIN9__gnu_cxx17__normal_iteratorIPiSt6vectorIiSaIiEEEESt13move_iteratorIS6_EET0_T_
FNDA:22,_ZSt32__make_move_if_noexcept_iteratorIN9__gnu_cxx17__normal_iteratorIPiSt6vectorIiSaIiEEEESt13move_iteratorIS6_EET0_T_
FN:1601,_ZSt32__make_move_if_noexcept_iteratorISt6vectorIiSaIiEESt13move_iteratorIPS2_EET0_PT_
FNDA:220,_ZSt32__make_move_if_noexcept_iteratorISt6vectorIiSaIiEESt13move_iteratorIPS2_EET0_PT_
FN:2203,_ZSt12__miter_baseIN9__gnu_cxx17__normal_iteratorIPiSt6vectorIiSaIiEEEEEDTcl12__miter_basecldtfp_4baseEEESt13move_iteratorIT_E
FNDA:22,_ZSt12__miter_baseIN9__gnu_cxx17__normal_iteratorIPiSt6vectorIiSaIiEEEEEDTcl12__miter_basecldtfp_4baseEEESt13move_iteratorIT_E
FNF:66
FNH:57
DA:975,1837
DA:976,1837
DA:975,6000030
DA:976,6000030
DA:975,600000
DA:976,600000
DA:975,121942
DA:976,121942
DA:975,840582
DA:976,840582
DA:975,9789
DA:976,9789
DA:975,7907185
DA:976,7907185
DA:975,1473099
DA:976,1473099
DA:990,0
DA:991,0
DA:990,2740000
DA:991,2740000
DA:990,3349415
DA:991,3349415
DA:990,667
DA:991,667
DA:990,906
DA:991,906
DA:990,8640
DA:991,8640
DA:990,202011
DA:991,202011
DA:1000,0
DA:1002,0
DA:1003,0
DA:1000,6
DA:1002,6
DA:1003,6
DA:1000,2740000
DA:1002,2740000
DA:1003,2740000
DA:1000,0
DA:1002,0
DA:1003,0
DA:1000,3349415
DA:1002,3349415
DA:1003,3349415
DA:1000,636
DA:1002,636
DA:1003,636
DA:1014,413
DA:1016,413
DA:1017,413
DA:1038,300000
DA:1039,300000
DA:1038,40000
DA:1039,40000
DA:1038,6495
DA:1039,6495
DA:1048,667
DA:1049,667
DA:1048,1281
DA:1049,1281
DA:1048,906
DA:1049,906
DA:1053,0
DA:1054,0
DA:1053,7907185
DA:1054,7907185
DA:1053,6080000
DA:1054,6080000
DA:1053,7539412
DA:1054,7539412
DA:1053,949
DA:1054,949
DA:1053,2890
DA:1054,2890
DA:1053,161216
DA:1054,161216
DA:1053,1340948
DA:1054,1340948
DA:1094,466
DA:1097,466
DA:1094,120
DA:1097,120
DA:1110,0
DA:1113,0
DA:1110,7
DA:1113,7
DA:1110,3040000
DA:1113,3040000
DA:1110,40000
DA:1113,40000
DA:1110,3729697
DA:1113,3729697
DA:1110,68
DA:1113,68
DA:1199,304
DA:1202,304
DA:1199,1379
DA:1202,1379
DA:1199,185306
DA:1202,185306
DA:1222,600022
DA:1224,600022
DA:1222,0
DA:1224,0
DA:1222,7907185
DA:1224,7907185
DA:1222,3
DA:1224,3
DA:1222,80000
DA:1224,80000
DA:1222,80018
DA:1224,80018
DA:1323,220
DA:1324,220
DA:1323,22
DA:1324,22
DA:1341,220
DA:1342,220
DA:1341,44
DA:1342,44
DA:1357,0
DA:1361,0
DA:1369,0
DA:1371,0
DA:1372,0
DA:1533,110
DA:1535,110
DA:1539,110
DA:1541,110
DA:1571,11
DA:1574,11
DA:1584,0
DA:1585,0
DA:1592,22
DA:1593,22
DA:1601,220
DA:1602,220
DA:2203,22
DA:2205,22
LF:140
LH:119
end_of_record
SF:/usr/local/include/c++/10.3.0/bits/deque.tcc
FN:481,_ZNSt5dequeIiSaIiEE16_M_push_back_auxIJRKiEEEvDpOT_
FNDA:0,_ZNSt5dequeIiSaIiEE16_M_push_back_auxIJRKiEEEvDpOT_
FN:557,_ZNSt5dequeIiSaIiEE15_M_pop_back_auxEv
FNDA:0,_ZNSt5dequeIiSaIiEE15_M_pop_back_auxEv
FN:928,_ZNSt5dequeIiSaIiEE17_M_reallocate_mapEmb
FNDA:0,_ZNSt5dequeIiSaIiEE17_M_reallocate_mapEmb
FNF:3
FNH:0
DA:481,0
DA:489,0
DA:490,0
DA:493,0
DA:494,0
DA:498,0
DA:504,0
DA:506,0
DA:513,0
DA:557,0
DA:560,0
DA:561,0
DA:562,0
DA:563,0
DA:565,0
DA:928,0
DA:931,0
DA:932,0
DA:933,0
DA:936,0
DA:938,0
DA:939,0
DA:940,0
DA:941,0
DA:942,0
DA:943,0
DA:946,0
DA:947,0
DA:948,0
DA:952,0
DA:953,0
DA:956,0
DA:957,0
DA:958,0
DA:959,0
DA:960,0
DA:962,0
DA:964,0
DA:965,0
DA:968,0
DA:969,0
DA:970,0
LF:42
LH:0
end_of_record
SF:/Users/qylenett/Desktop/navigator/SimpleNavigator-v1.0/src/tests/ant_tests.cc
FN:7,_ZN3s2136AntTest_weighted_graph_4_vert_1_TestC1Ev
FNDA:1,_ZN3s2136AntTest_weighted_graph_4_vert_1_TestC1Ev
FN:7,_ZN3s2136AntTest_weighted_graph_4_vert_1_TestD0Ev
FNDA:1,_ZN3s2136AntTest_weighted_graph_4_vert_1_TestD0Ev
FN:7,_ZN3s2136AntTest_weighted_graph_4_vert_1_TestD1Ev
FNDA:1,_ZN3s2136AntTest_weighted_graph_4_vert_1_TestD1Ev
FN:7,_ZN3s2136AntTest_weighted_graph_4_vert_1_Test8TestBodyEv
FNDA:1,_ZN3s2136AntTest_weighted_graph_4_vert_1_Test8TestBodyEv
FN:23,_ZN3s2135AntTest_weighted_graph_11_vert_TestC1Ev
FNDA:1,_ZN3s2135AntTest_weighted_graph_11_vert_TestC1Ev
FN:23,_ZN3s2135AntTest_weighted_graph_11_vert_TestD0Ev
FNDA:1,_ZN3s2135AntTest_weighted_graph_11_vert_TestD0Ev
FN:23,_ZN3s2135AntTest_weighted_graph_11_vert_TestD1Ev
FNDA:1,_ZN3s2135AntTest_weighted_graph_11_vert_TestD1Ev
FN:23,_ZN3s2135AntTest_weighted_graph_11_vert_Test8TestBodyEv
FNDA:1,_ZN3s2135AntTest_weighted_graph_11_vert_Test8TestBodyEv
FNF:8
FNH:8
DA:7,1
DA:7,1
DA:7,1
DA:7,1
DA:8,1
DA:9,1
DA:11,1
DA:12,1
DA:13,1
DA:14,1
DA:15,1
DA:16,1
DA:18,1
DA:23,1
DA:23,1
DA:23,1
DA:23,1
DA:24,1
DA:25,1
DA:27,1
DA:28,1
DA:29,1
DA:30,1
DA:31,1
DA:32,1
DA:33,1
LF:26
LH:26
end_of_record
SF:/Users/qylenett/Desktop/navigator/SimpleNavigator-v1.0/src/tests/prim_tests.cc
FN:4,_ZN3s21111GraphAlgorithmsTest_test_GetLeastSpanningTree_working_with_simple_graph_compare_weights_results_and_matrix_TestC1Ev
FNDA:1,_ZN3s21111GraphAlgorithmsTest_test_GetLeastSpanningTree_working_with_simple_graph_compare_weights_results_and_matrix_TestC1Ev
FN:4,_ZN3s21111GraphAlgorithmsTest_test_GetLeastSpanningTree_working_with_simple_graph_compare_weights_results_and_matrix_Test8TestBodyEv
FNDA:1,_ZN3s21111GraphAlgorithmsTest_test_GetLeastSpanningTree_working_with_simple_graph_compare_weights_results_and_matrix_Test8TestBodyEv
FN:4,_ZN3s21111GraphAlgorithmsTest_test_GetLeastSpanningTree_working_with_simple_graph_compare_weights_results_and_matrix_TestD0Ev
FNDA:1,_ZN3s21111GraphAlgorithmsTest_test_GetLeastSpanningTree_working_with_simple_graph_compare_weights_results_and_matrix_TestD0Ev
FN:4,_ZN3s21111GraphAlgorithmsTest_test_GetLeastSpanningTree_working_with_simple_graph_compare_weights_results_and_matrix_TestD1Ev
FNDA:1,_ZN3s21111GraphAlgorithmsTest_test_GetLeastSpanningTree_working_with_simple_graph_compare_weights_results_and_matrix_TestD1Ev
FN:26,_ZN3s21111GraphAlgorithmsTest_test_GetLeastSpanningTree_2_workingwithdirected_graph_compare_weight_result_and_matrix_TestC1Ev
FNDA:1,_ZN3s21111GraphAlgorithmsTest_test_GetLeastSpanningTree_2_workingwithdirected_graph_compare_weight_result_and_matrix_TestC1Ev
FN:26,_ZN3s21111GraphAlgorithmsTest_test_GetLeastSpanningTree_2_workingwithdirected_graph_compare_weight_result_and_matrix_Test8TestBodyEv
FNDA:1,_ZN3s21111GraphAlgorithmsTest_test_GetLeastSpanningTree_2_workingwithdirected_graph_compare_weight_result_and_matrix_Test8TestBodyEv
FN:26,_ZN3s21111GraphAlgorithmsTest_test_GetLeastSpanningTree_2_workingwithdirected_graph_compare_weight_result_and_matrix_TestD1Ev
FNDA:1,_ZN3s21111GraphAlgorithmsTest_test_GetLeastSpanningTree_2_workingwithdirected_graph_compare_weight_result_and_matrix_TestD1Ev
FN:26,_ZN3s21111GraphAlgorithmsTest_test_GetLeastSpanningTree_2_workingwithdirected_graph_compare_weight_result_and_matrix_TestD0Ev
FNDA:1,_ZN3s21111GraphAlgorithmsTest_test_GetLeastSpanningTree_2_workingwithdirected_graph_compare_weight_result_and_matrix_TestD0Ev
FN:48,_ZN3s21109GraphAlgorithmsTest_test_GetLeastSpanningTree_3_simple_graph_unweighted_compare_weight_result_and_matrix_TestD0Ev
FNDA:1,_ZN3s21109GraphAlgorithmsTest_test_GetLeastSpanningTree_3_simple_graph_unweighted_compare_weight_result_and_matrix_TestD0Ev
FN:48,_ZN3s21109GraphAlgorithmsTest_test_GetLeastSpanningTree_3_simple_graph_unweighted_compare_weight_result_and_matrix_TestD1Ev
FNDA:1,_ZN3s21109GraphAlgorithmsTest_test_GetLeastSpanningTree_3_simple_graph_unweighted_compare_weight_result_and_matrix_TestD1Ev
FN:48,_ZN3s21109GraphAlgorithmsTest_test_GetLeastSpanningTree_3_simple_graph_unweighted_compare_weight_result_and_matrix_Test8TestBodyEv
FNDA:1,_ZN3s21109GraphAlgorithmsTest_test_GetLeastSpanningTree_3_simple_graph_unweighted_compare_weight_result_and_matrix_Test8TestBodyEv
FN:48,_ZN3s21109GraphAlgorithmsTest_test_GetLeastSpanningTree_3_simple_graph_unweighted_compare_weight_result_and_matrix_TestC1Ev
FNDA:1,_ZN3s21109GraphAlgorithmsTest_test_GetLeastSpanningTree_3_simple_graph_unweighted_compare_weight_result_and_matrix_TestC1Ev
FN:73,_ZN3s2195GraphAlgorithmsTest_test_GetLeastSpanningTree_3_simple_graph_simple_10_vert_for_check_tree_TestD0Ev
FNDA:1,_ZN3s2195GraphAlgorithmsTest_test_GetLeastSpanningTree_3_simple_graph_simple_10_vert_for_check_tree_TestD0Ev
FN:73,_ZN3s2195GraphAlgorithmsTest_test_GetLeastSpanningTree_3_simple_graph_simple_10_vert_for_check_tree_TestD1Ev
FNDA:1,_ZN3s2195GraphAlgorithmsTest_test_GetLeastSpanningTree_3_simple_graph_simple_10_vert_for_check_tree_TestD1Ev
FN:73,_ZN3s2195GraphAlgorithmsTest_test_GetLeastSpanningTree_3_simple_graph_simple_10_vert_for_check_tree_Test8TestBodyEv
FNDA:1,_ZN3s2195GraphAlgorithmsTest_test_GetLeastSpanningTree_3_simple_graph_simple_10_vert_for_check_tree_Test8TestBodyEv
FN:73,_ZN3s2195GraphAlgorithmsTest_test_GetLeastSpanningTree_3_simple_graph_simple_10_vert_for_check_tree_TestC1Ev
FNDA:1,_ZN3s2195GraphAlgorithmsTest_test_GetLeastSpanningTree_3_simple_graph_simple_10_vert_for_check_tree_TestC1Ev
FN:99,_ZN3s2165GraphAlgorithmsTest_test_GetLeastSpanningTree_very_big_graph_TestC1Ev
FNDA:1,_ZN3s2165GraphAlgorithmsTest_test_GetLeastSpanningTree_very_big_graph_TestC1Ev
FN:99,_ZN3s2165GraphAlgorithmsTest_test_GetLeastSpanningTree_very_big_graph_TestD0Ev
FNDA:1,_ZN3s2165GraphAlgorithmsTest_test_GetLeastSpanningTree_very_big_graph_TestD0Ev
FN:99,_ZN3s2165GraphAlgorithmsTest_test_GetLeastSpanningTree_very_big_graph_TestD1Ev
FNDA:1,_ZN3s2165GraphAlgorithmsTest_test_GetLeastSpanningTree_very_big_graph_TestD1Ev
FN:99,_ZN3s2165GraphAlgorithmsTest_test_GetLeastSpanningTree_very_big_graph_Test8TestBodyEv
FNDA:1,_ZN3s2165GraphAlgorithmsTest_test_GetLeastSpanningTree_very_big_graph_Test8TestBodyEv
FNF:20
FNH:20
DA:4,1
DA:4,1
DA:4,1
DA:4,1
DA:7,1
DA:8,1
DA:9,1
DA:10,1
DA:12,1
DA:16,10
DA:17,8
DA:18,56
DA:19,49
DA:21,7
DA:22,7
DA:26,1
DA:26,1
DA:26,1
DA:26,1
DA:29,1
DA:30,1
DA:31,1
DA:32,1
DA:34,1
DA:38,10
DA:39,8
DA:40,56
DA:41,49
DA:43,7
DA:44,7
DA:48,1
DA:48,1
DA:48,1
DA:48,1
DA:51,1
DA:52,1
DA:53,1
DA:54,1
DA:56,1
DA:61,8
DA:63,6
DA:64,30
DA:65,25
DA:68,5
DA:69,5
DA:73,1
DA:73,1
DA:73,1
DA:73,1
DA:75,1
DA:76,1
DA:78,1
DA:79,1
DA:81,1
DA:87,13
DA:89,11
DA:90,110
DA:91,100
DA:94,10
DA:95,10
DA:99,1
DA:99,1
DA:99,1
DA:99,1
DA:100,1
DA:101,1
DA:102,1
DA:103,1
DA:105,1
DA:256,53
DA:258,51
DA:259,2550
DA:260,2500
DA:262,50
DA:263,50
LF:75
LH:75
end_of_record
SF:/usr/local/include/c++/10.3.0/ext/alloc_traits.h
FN:97,_ZN9__gnu_cxx14__alloc_traitsISaISt4pairIiiEES2_E17_S_select_on_copyERKS3_
FNDA:1,_ZN9__gnu_cxx14__alloc_traitsISaISt4pairIiiEES2_E17_S_select_on_copyERKS3_
FN:97,_ZN9__gnu_cxx14__alloc_traitsISaIdEdE17_S_select_on_copyERKS1_
FNDA:3000015,_ZN9__gnu_cxx14__alloc_traitsISaIdEdE17_S_select_on_copyERKS1_
FN:97,_ZN9__gnu_cxx14__alloc_traitsISaISt6vectorIdSaIdEEES3_E17_S_select_on_copyERKS4_
FNDA:300000,_ZN9__gnu_cxx14__alloc_traitsISaISt6vectorIdSaIdEEES3_E17_S_select_on_copyERKS4_
FN:97,_ZN9__gnu_cxx14__alloc_traitsISaImEmE17_S_select_on_copyERKS1_
FNDA:113,_ZN9__gnu_cxx14__alloc_traitsISaImEmE17_S_select_on_copyERKS1_
FN:97,_ZN9__gnu_cxx14__alloc_traitsISaISt6vectorIiSaIiEEES3_E17_S_select_on_copyERKS4_
FNDA:380282,_ZN9__gnu_cxx14__alloc_traitsISaISt6vectorIiSaIiEEES3_E17_S_select_on_copyERKS4_
FN:97,_ZN9__gnu_cxx14__alloc_traitsISaIiEiE17_S_select_on_copyERKS1_
FNDA:3653459,_ZN9__gnu_cxx14__alloc_traitsISaIiEiE17_S_select_on_copyERKS1_
FN:97,_ZN9__gnu_cxx14__alloc_traitsISaIcEcE17_S_select_on_copyERKS1_
FNDA:0,_ZN9__gnu_cxx14__alloc_traitsISaIcEcE17_S_select_on_copyERKS1_
FN:100,_ZN9__gnu_cxx14__alloc_traitsISaIiEiE10_S_on_swapERS1_S3_
FNDA:11,_ZN9__gnu_cxx14__alloc_traitsISaIiEiE10_S_on_swapERS1_S3_
FN:103,_ZN9__gnu_cxx14__alloc_traitsISaIiEiE27_S_propagate_on_copy_assignEv
FNDA:300000,_ZN9__gnu_cxx14__alloc_traitsISaIiEiE27_S_propagate_on_copy_assignEv
FN:103,_ZN9__gnu_cxx14__alloc_traitsISaISt6vectorIiSaIiEEES3_E27_S_propagate_on_copy_assignEv
FNDA:40000,_ZN9__gnu_cxx14__alloc_traitsISaISt6vectorIiSaIiEEES3_E27_S_propagate_on_copy_assignEv
FN:112,_ZN9__gnu_cxx14__alloc_traitsISaIiEiE15_S_always_equalEv
FNDA:0,_ZN9__gnu_cxx14__alloc_traitsISaIiEiE15_S_always_equalEv
FN:112,_ZN9__gnu_cxx14__alloc_traitsISaISt6vectorIiSaIiEEES3_E15_S_always_equalEv
FNDA:0,_ZN9__gnu_cxx14__alloc_traitsISaISt6vectorIiSaIiEEES3_E15_S_always_equalEv
FNF:12
FNH:9
DA:97,1
DA:98,1
DA:97,3000015
DA:98,3000015
DA:97,300000
DA:98,300000
DA:97,113
DA:98,113
DA:97,380282
DA:98,380282
DA:97,3653459
DA:98,3653459
DA:97,0
DA:98,0
DA:100,11
DA:101,11
DA:103,300000
DA:104,300000
DA:103,40000
DA:104,40000
DA:112,0
DA:113,0
DA:112,0
DA:113,0
LF:24
LH:18
end_of_record
SF:/usr/local/include/gtest/gtest-message.h
LF:0
LH:0
end_of_record
SF:/usr/local/include/c++/10.3.0/cmath
FN:415,_ZSt3powIdiEN9__gnu_cxx11__promote_2IT_T0_NS0_9__promoteIS2_XsrSt12__is_integerIS2_E7__valueEE6__typeENS4_IS3_XsrS5_IS3_E7__valueEE6__typeEE6__typeES2_S3_
FNDA:4800000,_ZSt3powIdiEN9__gnu_cxx11__promote_2IT_T0_NS0_9__promoteIS2_XsrSt12__is_integerIS2_E7__valueEE6__typeENS4_IS3_XsrS5_IS3_E7__valueEE6__typeEE6__typeES2_S3_
FNF:1
FNH:1
DA:415,4800000
DA:418,4800000
LF:2
LH:2
end_of_record
SF:/usr/local/include/c++/10.3.0/bits/stl_algo.h
FN:3900,_ZSt4findIN9__gnu_cxx17__normal_iteratorIPiSt6vectorIiSaIiEEEEiET_S7_S7_RKT0_
FNDA:188,_ZSt4findIN9__gnu_cxx17__normal_iteratorIPiSt6vectorIiSaIiEEEEiET_S7_S7_RKT0_
FNF:1
FNH:1
DA:3900,188
DA:3908,188
DA:3909,188
LF:3
LH:3
end_of_record
SF:/usr/local/include/c++/10.3.0/bits/basic_string.h
FN:243,_ZNSt7__cxx1112basic_stringIcSt11char_traitsIcESaIcEE16_M_construct_auxIPKcEEvT_S8_St12__false_type
FNDA:0,_ZNSt7__cxx1112basic_stringIcSt11char_traitsIcESaIcEE16_M_construct_auxIPKcEEvT_S8_St12__false_type
FN:263,_ZNSt7__cxx1112basic_stringIcSt11char_traitsIcESaIcEE12_M_constructIPKcEEvT_S8_
FNDA:260129,_ZNSt7__cxx1112basic_stringIcSt11char_traitsIcESaIcEE12_M_constructIPKcEEvT_S8_
FN:525,_ZNSt7__cxx1112basic_stringIcSt11char_traitsIcESaIcEEC1IS3_EEPKcRKS3_
FNDA:260129,_ZNSt7__cxx1112basic_stringIcSt11char_traitsIcESaIcEEC1IS3_EEPKcRKS3_
FNF:3
FNH:2
DA:243,0
DA:247,0
DA:248,0
DA:263,260129
DA:266,260129
DA:267,260129
DA:525,260129
DA:526,260129
DA:527,260129
LF:9
LH:6
end_of_record
SF:/usr/local/include/c++/10.3.0/ext/new_allocator.h
FN:79,_ZN9__gnu_cxx13new_allocatorIdEC2Ev
FNDA:0,_ZN9__gnu_cxx13new_allocatorIdEC2Ev
FN:79,_ZN9__gnu_cxx13new_allocatorIPiEC2Ev
FNDA:16,_ZN9__gnu_cxx13new_allocatorIPiEC2Ev
FN:79,_ZN9__gnu_cxx13new_allocatorISt6vectorIiSaIiEEEC2Ev
FNDA:40257,_ZN9__gnu_cxx13new_allocatorISt6vectorIiSaIiEEEC2Ev
FN:79,_ZN9__gnu_cxx13new_allocatorIN3s214ListIiEEEC2Ev
FNDA:34,_ZN9__gnu_cxx13new_allocatorIN3s214ListIiEEEC2Ev
FN:79,_ZN9__gnu_cxx13new_allocatorISt6vectorIdSaIdEEEC2Ev
FNDA:0,_ZN9__gnu_cxx13new_allocatorISt6vectorIdSaIdEEEC2Ev
FN:79,_ZN9__gnu_cxx13new_allocatorImEC2Ev
FNDA:134,_ZN9__gnu_cxx13new_allocatorImEC2Ev
FN:79,_ZN9__gnu_cxx13new_allocatorISt4pairIiiEEC2Ev
FNDA:80,_ZN9__gnu_cxx13new_allocatorISt4pairIiiEEC2Ev
FN:79,_ZN9__gnu_cxx13new_allocatorIiEC2Ev
FNDA:0,_ZN9__gnu_cxx13new_allocatorIiEC2Ev
FN:79,_ZN9__gnu_cxx13new_allocatorIbEC2Ev
FNDA:134,_ZN9__gnu_cxx13new_allocatorIbEC2Ev
FN:82,_ZN9__gnu_cxx13new_allocatorImEC2ERKS1_
FNDA:247,_ZN9__gnu_cxx13new_allocatorImEC2ERKS1_
FN:82,_ZN9__gnu_cxx13new_allocatorISt4pairIiiEEC2ERKS3_
FNDA:4,_ZN9__gnu_cxx13new_allocatorISt4pairIiiEEC2ERKS3_
FN:82,_ZN9__gnu_cxx13new_allocatorISt6vectorIdSaIdEEEC2ERKS4_
FNDA:600004,_ZN9__gnu_cxx13new_allocatorISt6vectorIdSaIdEEEC2ERKS4_
FN:82,_ZN9__gnu_cxx13new_allocatorIdEC2ERKS1_
FNDA:0,_ZN9__gnu_cxx13new_allocatorIdEC2ERKS1_
FN:82,_ZN9__gnu_cxx13new_allocatorISt6vectorIiSaIiEEEC2ERKS4_
FNDA:840710,_ZN9__gnu_cxx13new_allocatorISt6vectorIiSaIiEEEC2ERKS4_
FN:82,_ZN9__gnu_cxx13new_allocatorIiEC2ERKS1_
FNDA:7389058,_ZN9__gnu_cxx13new_allocatorIiEC2ERKS1_
FN:89,_ZN9__gnu_cxx13new_allocatorISt6vectorIdSaIdEEED2Ev
FNDA:0,_ZN9__gnu_cxx13new_allocatorISt6vectorIdSaIdEEED2Ev
FN:89,_ZN9__gnu_cxx13new_allocatorIN3s214ListIiEEED2Ev
FNDA:34,_ZN9__gnu_cxx13new_allocatorIN3s214ListIiEEED2Ev
FN:89,_ZN9__gnu_cxx13new_allocatorImED2Ev
FNDA:0,_ZN9__gnu_cxx13new_allocatorImED2Ev
FN:89,_ZN9__gnu_cxx13new_allocatorIdED2Ev
FNDA:0,_ZN9__gnu_cxx13new_allocatorIdED2Ev
FN:89,_ZN9__gnu_cxx13new_allocatorISt6vectorIiSaIiEEED2Ev
FNDA:880967,_ZN9__gnu_cxx13new_allocatorISt6vectorIiSaIiEEED2Ev
FN:89,_ZN9__gnu_cxx13new_allocatorISt4pairIiiEED2Ev
FNDA:84,_ZN9__gnu_cxx13new_allocatorISt4pairIiiEED2Ev
FN:89,_ZN9__gnu_cxx13new_allocatorIPiED2Ev
FNDA:16,_ZN9__gnu_cxx13new_allocatorIPiED2Ev
FN:89,_ZN9__gnu_cxx13new_allocatorIbED2Ev
FNDA:134,_ZN9__gnu_cxx13new_allocatorIbED2Ev
FN:89,_ZN9__gnu_cxx13new_allocatorIiED2Ev
FNDA:0,_ZN9__gnu_cxx13new_allocatorIiED2Ev
FN:103,_ZN9__gnu_cxx13new_allocatorIPiE8allocateEmPKv
FNDA:8,_ZN9__gnu_cxx13new_allocatorIPiE8allocateEmPKv
FN:103,_ZN9__gnu_cxx13new_allocatorImE8allocateEmPKv
FNDA:0,_ZN9__gnu_cxx13new_allocatorImE8allocateEmPKv
FN:103,_ZN9__gnu_cxx13new_allocatorISt6vectorIdSaIdEEE8allocateEmPKv
FNDA:300002,_ZN9__gnu_cxx13new_allocatorISt6vectorIdSaIdEEE8allocateEmPKv
FN:103,_ZN9__gnu_cxx13new_allocatorIiE8allocateEmPKv
FNDA:0,_ZN9__gnu_cxx13new_allocatorIiE8allocateEmPKv
FN:103,_ZN9__gnu_cxx13new_allocatorISt6vectorIiSaIiEEE8allocateEmPKv
FNDA:420654,_ZN9__gnu_cxx13new_allocatorISt6vectorIiSaIiEEE8allocateEmPKv
FN:103,_ZN9__gnu_cxx13new_allocatorIdE8allocateEmPKv
FNDA:0,_ZN9__gnu_cxx13new_allocatorIdE8allocateEmPKv
FN:103,_ZN9__gnu_cxx13new_allocatorISt4pairIiiEE8allocateEmPKv
FNDA:68,_ZN9__gnu_cxx13new_allocatorISt4pairIiiEE8allocateEmPKv
FN:120,_ZN9__gnu_cxx13new_allocatorIdE10deallocateEPdm
FNDA:0,_ZN9__gnu_cxx13new_allocatorIdE10deallocateEPdm
FN:120,_ZN9__gnu_cxx13new_allocatorISt6vectorIiSaIiEEE10deallocateEPS3_m
FNDA:420654,_ZN9__gnu_cxx13new_allocatorISt6vectorIiSaIiEEE10deallocateEPS3_m
FN:120,_ZN9__gnu_cxx13new_allocatorISt4pairIiiEE10deallocateEPS2_m
FNDA:68,_ZN9__gnu_cxx13new_allocatorISt4pairIiiEE10deallocateEPS2_m
FN:120,_ZN9__gnu_cxx13new_allocatorIiE10deallocateEPim
FNDA:3878679,_ZN9__gnu_cxx13new_allocatorIiE10deallocateEPim
FN:120,_ZN9__gnu_cxx13new_allocatorIPiE10deallocateEPS1_m
FNDA:8,_ZN9__gnu_cxx13new_allocatorIPiE10deallocateEPS1_m
FN:120,_ZN9__gnu_cxx13new_allocatorISt6vectorIdSaIdEEE10deallocateEPS3_m
FNDA:0,_ZN9__gnu_cxx13new_allocatorISt6vectorIdSaIdEEE10deallocateEPS3_m
FN:120,_ZN9__gnu_cxx13new_allocatorImE10deallocateEPmm
FNDA:0,_ZN9__gnu_cxx13new_allocatorImE10deallocateEPmm
FN:142,_ZNK9__gnu_cxx13new_allocatorIiE8max_sizeEv
FNDA:410223,_ZNK9__gnu_cxx13new_allocatorIiE8max_sizeEv
FN:142,_ZNK9__gnu_cxx13new_allocatorISt6vectorIiSaIiEEE8max_sizeEv
FNDA:40676,_ZNK9__gnu_cxx13new_allocatorISt6vectorIiSaIiEEE8max_sizeEv
FN:142,_ZNK9__gnu_cxx13new_allocatorIdE8max_sizeEv
FNDA:0,_ZNK9__gnu_cxx13new_allocatorIdE8max_sizeEv
FN:142,_ZNK9__gnu_cxx13new_allocatorISt6vectorIdSaIdEEE8max_sizeEv
FNDA:0,_ZNK9__gnu_cxx13new_allocatorISt6vectorIdSaIdEEE8max_sizeEv
FN:142,_ZNK9__gnu_cxx13new_allocatorISt4pairIiiEE8max_sizeEv
FNDA:133,_ZNK9__gnu_cxx13new_allocatorISt4pairIiiEE8max_sizeEv
FN:148,_ZN9__gnu_cxx13new_allocatorIiE9constructIiJRKiEEEvPT_DpOT0_
FNDA:359086,_ZN9__gnu_cxx13new_allocatorIiE9constructIiJRKiEEEvPT_DpOT0_
FN:148,_ZN9__gnu_cxx13new_allocatorISt6vectorIiSaIiEEE9constructIS3_JS3_EEEvPT_DpOT0_
FNDA:1481,_ZN9__gnu_cxx13new_allocatorISt6vectorIiSaIiEEE9constructIS3_JS3_EEEvPT_DpOT0_
FN:148,_ZN9__gnu_cxx13new_allocatorISt4pairIiiEE9constructIS2_JS2_EEEvPT_DpOT0_
FNDA:661,_ZN9__gnu_cxx13new_allocatorISt4pairIiiEE9constructIS2_JS2_EEEvPT_DpOT0_
FN:148,_ZN9__gnu_cxx13new_allocatorIiE9constructIiJiEEEvPT_DpOT0_
FNDA:0,_ZN9__gnu_cxx13new_allocatorIiE9constructIiJiEEEvPT_DpOT0_
FN:148,_ZN9__gnu_cxx13new_allocatorISt6vectorIiSaIiEEE9constructIS3_JRKS3_EEEvPT_DpOT0_
FNDA:0,_ZN9__gnu_cxx13new_allocatorISt6vectorIiSaIiEEE9constructIS3_JRKS3_EEEvPT_DpOT0_
FN:154,_ZN9__gnu_cxx13new_allocatorIiE7destroyIiEEvPT_
FNDA:0,_ZN9__gnu_cxx13new_allocatorIiE7destroyIiEEvPT_
FN:154,_ZN9__gnu_cxx13new_allocatorISt4pairIiiEE7destroyIS2_EEvPT_
FNDA:655,_ZN9__gnu_cxx13new_allocatorISt4pairIiiEE7destroyIS2_EEvPT_
FN:154,_ZN9__gnu_cxx13new_allocatorISt6vectorIiSaIiEEE7destroyIS3_EEvPT_
FNDA:814,_ZN9__gnu_cxx13new_allocatorISt6vectorIiSaIiEEE7destroyIS3_EEvPT_
FN:185,_ZNK9__gnu_cxx13new_allocatorIPiE11_M_max_sizeEv
FNDA:8,_ZNK9__gnu_cxx13new_allocatorIPiE11_M_max_sizeEv
FN:185,_ZNK9__gnu_cxx13new_allocatorIiE11_M_max_sizeEv
FNDA:0,_ZNK9__gnu_cxx13new_allocatorIiE11_M_max_sizeEv
FN:185,_ZNK9__gnu_cxx13new_allocatorImE11_M_max_sizeEv
FNDA:134,_ZNK9__gnu_cxx13new_allocatorImE11_M_max_sizeEv
FN:185,_ZNK9__gnu_cxx13new_allocatorISt6vectorIiSaIiEEE11_M_max_sizeEv
FNDA:461330,_ZNK9__gnu_cxx13new_allocatorISt6vectorIiSaIiEEE11_M_max_sizeEv
FN:185,_ZNK9__gnu_cxx13new_allocatorIdE11_M_max_sizeEv
FNDA:0,_ZNK9__gnu_cxx13new_allocatorIdE11_M_max_sizeEv
FN:185,_ZNK9__gnu_cxx13new_allocatorISt6vectorIdSaIdEEE11_M_max_sizeEv
FNDA:300004,_ZNK9__gnu_cxx13new_allocatorISt6vectorIdSaIdEEE11_M_max_sizeEv
FN:185,_ZNK9__gnu_cxx13new_allocatorISt4pairIiiEE11_M_max_sizeEv
FNDA:201,_ZNK9__gnu_cxx13new_allocatorISt4pairIiiEE11_M_max_sizeEv
FNF:58
FNH:37
DA:79,16
DA:79,134
DA:79,34
DA:79,80
DA:79,0
DA:79,0
DA:79,40257
DA:79,134
DA:79,0
DA:82,4
DA:82,247
DA:82,600004
DA:82,0
DA:82,840710
DA:82,7389058
DA:89,16
DA:89,34
DA:89,0
DA:89,0
DA:89,0
DA:89,134
DA:89,0
DA:89,84
DA:89,880967
DA:103,8
DA:105,8
DA:106,0
DA:115,8
DA:103,300002
DA:105,300002
DA:106,0
DA:115,300002
DA:103,0
DA:105,0
DA:106,0
DA:115,0
DA:103,68
DA:105,68
DA:106,0
DA:115,68
DA:103,420654
DA:105,420654
DA:106,0
DA:115,420654
DA:103,0
DA:105,0
DA:106,0
DA:115,0
DA:103,0
DA:105,0
DA:106,0
DA:115,0
DA:120,8
DA:133,8
DA:120,0
DA:133,0
DA:120,0
DA:133,0
DA:120,0
DA:133,0
DA:120,3878679
DA:133,3878679
DA:120,68
DA:133,68
DA:120,420654
DA:133,420654
DA:142,133
DA:143,133
DA:142,0
DA:143,0
DA:142,0
DA:143,0
DA:142,40676
DA:143,40676
DA:142,410223
DA:143,410223
DA:148,0
DA:150,0
DA:148,1481
DA:150,1481
DA:148,0
DA:150,0
DA:148,661
DA:150,661
DA:148,359086
DA:150,359086
DA:154,814
DA:156,814
DA:154,655
DA:156,655
DA:154,0
DA:156,0
DA:185,8
DA:188,8
DA:185,201
DA:188,201
DA:185,300004
DA:188,300004
DA:185,0
DA:188,0
DA:185,461330
DA:188,461330
DA:185,134
DA:188,134
DA:185,0
DA:188,0
LF:106
LH:62
end_of_record
SF:/usr/local/include/c++/10.3.0/bits/stl_iterator_base_types.h
FN:238,_ZSt19__iterator_categoryIPdENSt15iterator_traitsIT_E17iterator_categoryERKS2_
FNDA:300002,_ZSt19__iterator_categoryIPdENSt15iterator_traitsIT_E17iterator_categoryERKS2_
FN:238,_ZSt19__iterator_categoryIPiENSt15iterator_traitsIT_E17iterator_categoryERKS2_
FNDA:40089,_ZSt19__iterator_categoryIPiENSt15iterator_traitsIT_E17iterator_categoryERKS2_
FN:238,_ZSt19__iterator_categoryISt13move_iteratorIN9__gnu_cxx17__normal_iteratorIPiSt6vectorIiSaIiEEEEEENSt15iterator_traitsIT_E17iterator_categoryERKSA_
FNDA:22,_ZSt19__iterator_categoryISt13move_iteratorIN9__gnu_cxx17__normal_iteratorIPiSt6vectorIiSaIiEEEEEENSt15iterator_traitsIT_E17iterator_categoryERKSA_
FN:238,_ZSt19__iterator_categoryIPKcENSt15iterator_traitsIT_E17iterator_categoryERKS3_
FNDA:0,_ZSt19__iterator_categoryIPKcENSt15iterator_traitsIT_E17iterator_categoryERKS3_
FN:238,_ZSt19__iterator_categoryIPKSt4pairIiiEENSt15iterator_traitsIT_E17iterator_categoryERKS5_
FNDA:1,_ZSt19__iterator_categoryIPKSt4pairIiiEENSt15iterator_traitsIT_E17iterator_categoryERKS5_
FN:238,_ZSt19__iterator_categoryIPKSt6vectorIiSaIiEEENSt15iterator_traitsIT_E17iterator_categoryERKS6_
FNDA:11,_ZSt19__iterator_categoryIPKSt6vectorIiSaIiEEENSt15iterator_traitsIT_E17iterator_categoryERKS6_
FN:238,_ZSt19__iterator_categoryIPKiENSt15iterator_traitsIT_E17iterator_categoryERKS3_
FNDA:224,_ZSt19__iterator_categoryIPKiENSt15iterator_traitsIT_E17iterator_categoryERKS3_
FN:238,_ZSt19__iterator_categoryIN9__gnu_cxx17__normal_iteratorIPiSt6vectorIiSaIiEEEEENSt15iterator_traitsIT_E17iterator_categoryERKS8_
FNDA:188,_ZSt19__iterator_categoryIN9__gnu_cxx17__normal_iteratorIPiSt6vectorIiSaIiEEEEENSt15iterator_traitsIT_E17iterator_categoryERKS8_
FNF:8
FNH:7
DA:238,300002
DA:239,300002
DA:238,40089
DA:239,40089
DA:238,22
DA:239,22
DA:238,0
DA:239,0
DA:238,1
DA:239,1
DA:238,11
DA:239,11
DA:238,224
DA:239,224
DA:238,188
DA:239,188
LF:16
LH:14
end_of_record
SF:/usr/local/include/c++/10.3.0/bits/random.h
FN:137,_ZNSt8__detail4_ModIjLj624ELj1ELj0ELb1ELb1EE6__calcEj
FNDA:161980000,_ZNSt8__detail4_ModIjLj624ELj1ELj0ELb1ELb1EE6__calcEj
FN:137,_ZNSt8__detail4_ModIjLj0ELj1ELj0ELb1ELb0EE6__calcEj
FNDA:162240000,_ZNSt8__detail4_ModIjLj0ELj1ELj0ELb1ELb0EE6__calcEj
FN:148,_ZNSt8__detail5__modIjLj0ELj1ELj0EEET_S1_
FNDA:162240000,_ZNSt8__detail5__modIjLj0ELj1ELj0EEET_S1_
FN:148,_ZNSt8__detail5__modIjLj624ELj1ELj0EEET_S1_
FNDA:161980000,_ZNSt8__detail5__modIjLj624ELj1ELj0EEET_S1_
FN:171,_ZNSt8__detail8_AdaptorISt23mersenne_twister_engineIjLm32ELm624ELm397ELm31ELj2567483615ELm11ELj4294967295ELm7ELj2636928640ELm15ELj4022730752ELm18ELj1812433253EEdEC1ERS2_
FNDA:260000,_ZNSt8__detail8_AdaptorISt23mersenne_twister_engineIjLm32ELm624ELm397ELm31ELj2567483615ELm11ELj4294967295ELm7ELj2636928640ELm15ELj4022730752ELm18ELj1812433253EEdEC1ERS2_
FN:188,_ZNSt8__detail8_AdaptorISt23mersenne_twister_engineIjLm32ELm624ELm397ELm31ELj2567483615ELm11ELj4294967295ELm7ELj2636928640ELm15ELj4022730752ELm18ELj1812433253EEdEclEv
FNDA:260000,_ZNSt8__detail8_AdaptorISt23mersenne_twister_engineIjLm32ELm624ELm397ELm31ELj2567483615ELm11ELj4294967295ELm7ELj2636928640ELm15ELj4022730752ELm18ELj1812433253EEdEclEv
FN:530,_ZNSt23mersenne_twister_engineIjLm32ELm624ELm397ELm31ELj2567483615ELm11ELj4294967295ELm7ELj2636928640ELm15ELj4022730752ELm18ELj1812433253EEC1Ej
FNDA:260000,_ZNSt23mersenne_twister_engineIjLm32ELm624ELm397ELm31ELj2567483615ELm11ELj4294967295ELm7ELj2636928640ELm15ELj4022730752ELm18ELj1812433253EEC1Ej
FN:555,_ZNSt23mersenne_twister_engineIjLm32ELm624ELm397ELm31ELj2567483615ELm11ELj4294967295ELm7ELj2636928640ELm15ELj4022730752ELm18ELj1812433253EE3minEv
FNDA:520000,_ZNSt23mersenne_twister_engineIjLm32ELm624ELm397ELm31ELj2567483615ELm11ELj4294967295ELm7ELj2636928640ELm15ELj4022730752ELm18ELj1812433253EE3minEv
FN:1616,_ZNSt13random_deviceC1Ev
FNDA:260000,_ZNSt13random_deviceC1Ev
FN:1622,_ZNSt13random_deviceD1Ev
FNDA:260000,_ZNSt13random_deviceD1Ev
FN:1645,_ZNSt13random_deviceclEv
FNDA:260000,_ZNSt13random_deviceclEv
FN:1757,_ZNSt25uniform_real_distributionIdE10param_typeC1Edd
FNDA:260000,_ZNSt25uniform_real_distributionIdE10param_typeC1Edd
FN:1764,_ZNKSt25uniform_real_distributionIdE10param_type1aEv
FNDA:520000,_ZNKSt25uniform_real_distributionIdE10param_type1aEv
FN:1768,_ZNKSt25uniform_real_distributionIdE10param_type1bEv
FNDA:260000,_ZNKSt25uniform_real_distributionIdE10param_type1bEv
FN:1799,_ZNSt25uniform_real_distributionIdEC1Edd
FNDA:260000,_ZNSt25uniform_real_distributionIdEC1Edd
FN:1858,_ZNSt25uniform_real_distributionIdEclISt23mersenne_twister_engineIjLm32ELm624ELm397ELm31ELj2567483615ELm11ELj4294967295ELm7ELj2636928640ELm15ELj4022730752ELm18ELj1812433253EEEEdRT_
FNDA:260000,_ZNSt25uniform_real_distributionIdEclISt23mersenne_twister_engineIjLm32ELm624ELm397ELm31ELj2567483615ELm11ELj4294967295ELm7ELj2636928640ELm15ELj4022730752ELm18ELj1812433253EEEEdRT_
FN:1863,_ZNSt25uniform_real_distributionIdEclISt23mersenne_twister_engineIjLm32ELm624ELm397ELm31ELj2567483615ELm11ELj4294967295ELm7ELj2636928640ELm15ELj4022730752ELm18ELj1812433253EEEEdRT_RKNS0_10param_typeE
FNDA:260000,_ZNSt25uniform_real_distributionIdEclISt23mersenne_twister_engineIjLm32ELm624ELm397ELm31ELj2567483615ELm11ELj4294967295ELm7ELj2636928640ELm15ELj4022730752ELm18ELj1812433253EEEEdRT_RKNS0_10param_typeE
FNF:17
FNH:17
DA:137,161980000
DA:139,161980000
DA:141,161980000
DA:142,161980000
DA:137,162240000
DA:139,162240000
DA:142,162240000
DA:148,161980000
DA:155,161980000
DA:156,161980000
DA:148,162240000
DA:155,162240000
DA:156,162240000
DA:171,260000
DA:172,260000
DA:188,260000
DA:192,260000
DA:530,260000
DA:531,260000
DA:555,520000
DA:556,520000
DA:1616,260000
DA:1622,260000
DA:1623,260000
DA:1645,260000
DA:1646,260000
DA:1757,260000
DA:1758,260000
DA:1761,260000
DA:1764,520000
DA:1765,520000
DA:1768,260000
DA:1769,260000
DA:1799,260000
DA:1800,260000
DA:1801,260000
DA:1858,260000
DA:1859,260000
DA:1863,260000
DA:1867,260000
DA:1868,260000
LF:41
LH:41
end_of_record
SF:/Users/qylenett/Desktop/navigator/SimpleNavigator-v1.0/src/tests/deikstra_tests.cc
FN:4,_ZN3s2142GraphAlgorithmsTest_ShortestPathCase1_TestC1Ev
FNDA:1,_ZN3s2142GraphAlgorithmsTest_ShortestPathCase1_TestC1Ev
FN:4,_ZN3s2142GraphAlgorithmsTest_ShortestPathCase1_Test8TestBodyEv
FNDA:1,_ZN3s2142GraphAlgorithmsTest_ShortestPathCase1_Test8TestBodyEv
FN:4,_ZN3s2142GraphAlgorithmsTest_ShortestPathCase1_TestD1Ev
FNDA:1,_ZN3s2142GraphAlgorithmsTest_ShortestPathCase1_TestD1Ev
FN:4,_ZN3s2142GraphAlgorithmsTest_ShortestPathCase1_TestD0Ev
FNDA:1,_ZN3s2142GraphAlgorithmsTest_ShortestPathCase1_TestD0Ev
FN:14,_ZN3s2142GraphAlgorithmsTest_ShortestPathCase2_TestC1Ev
FNDA:1,_ZN3s2142GraphAlgorithmsTest_ShortestPathCase2_TestC1Ev
FN:14,_ZN3s2142GraphAlgorithmsTest_ShortestPathCase2_Test8TestBodyEv
FNDA:1,_ZN3s2142GraphAlgorithmsTest_ShortestPathCase2_Test8TestBodyEv
FN:14,_ZN3s2142GraphAlgorithmsTest_ShortestPathCase2_TestD1Ev
FNDA:1,_ZN3s2142GraphAlgorithmsTest_ShortestPathCase2_TestD1Ev
FN:14,_ZN3s2142GraphAlgorithmsTest_ShortestPathCase2_TestD0Ev
FNDA:1,_ZN3s2142GraphAlgorithmsTest_ShortestPathCase2_TestD0Ev
FN:24,_ZN3s2142GraphAlgorithmsTest_ShortestPathCase3_TestC1Ev
FNDA:1,_ZN3s2142GraphAlgorithmsTest_ShortestPathCase3_TestC1Ev
FN:24,_ZN3s2142GraphAlgorithmsTest_ShortestPathCase3_Test8TestBodyEv
FNDA:1,_ZN3s2142GraphAlgorithmsTest_ShortestPathCase3_Test8TestBodyEv
FN:24,_ZN3s2142GraphAlgorithmsTest_ShortestPathCase3_TestD1Ev
FNDA:1,_ZN3s2142GraphAlgorithmsTest_ShortestPathCase3_TestD1Ev
FN:24,_ZN3s2142GraphAlgorithmsTest_ShortestPathCase3_TestD0Ev
FNDA:1,_ZN3s2142GraphAlgorithmsTest_ShortestPathCase3_TestD0Ev
FN:34,_ZN3s2142GraphAlgorithmsTest_ShortestPathCase4_TestC1Ev
FNDA:1,_ZN3s2142GraphAlgorithmsTest_ShortestPathCase4_TestC1Ev
FN:34,_ZN3s2142GraphAlgorithmsTest_ShortestPathCase4_Test8TestBodyEv
FNDA:1,_ZN3s2142GraphAlgorithmsTest_ShortestPathCase4_Test8TestBodyEv
FN:34,_ZN3s2142GraphAlgorithmsTest_ShortestPathCase4_TestD1Ev
FNDA:1,_ZN3s2142GraphAlgorithmsTest_ShortestPathCase4_TestD1Ev
FN:34,_ZN3s2142GraphAlgorithmsTest_ShortestPathCase4_TestD0Ev
FNDA:1,_ZN3s2142GraphAlgorithmsTest_ShortestPathCase4_TestD0Ev
FN:44,_ZN3s2140GraphAlgorithmsTest_InvalidVertices_TestD1Ev
FNDA:1,_ZN3s2140GraphAlgorithmsTest_InvalidVertices_TestD1Ev
FN:44,_ZN3s2140GraphAlgorithmsTest_InvalidVertices_TestD0Ev
FNDA:1,_ZN3s2140GraphAlgorithmsTest_InvalidVertices_TestD0Ev
FN:44,_ZN3s2140GraphAlgorithmsTest_InvalidVertices_Test8TestBodyEv
FNDA:1,_ZN3s2140GraphAlgorithmsTest_InvalidVertices_Test8TestBodyEv
FN:44,_ZN3s2140GraphAlgorithmsTest_InvalidVertices_TestC1Ev
FNDA:1,_ZN3s2140GraphAlgorithmsTest_InvalidVertices_TestC1Ev
FN:54,_ZN3s2141GraphAlgorithmsTest_InvalidVertices1_TestC1Ev
FNDA:1,_ZN3s2141GraphAlgorithmsTest_InvalidVertices1_TestC1Ev
FN:54,_ZN3s2141GraphAlgorithmsTest_InvalidVertices1_TestD0Ev
FNDA:1,_ZN3s2141GraphAlgorithmsTest_InvalidVertices1_TestD0Ev
FN:54,_ZN3s2141GraphAlgorithmsTest_InvalidVertices1_TestD1Ev
FNDA:1,_ZN3s2141GraphAlgorithmsTest_InvalidVertices1_TestD1Ev
FN:54,_ZN3s2141GraphAlgorithmsTest_InvalidVertices1_Test8TestBodyEv
FNDA:1,_ZN3s2141GraphAlgorithmsTest_InvalidVertices1_Test8TestBodyEv
FN:64,_ZN3s2142GraphAlgorithmsTest_ShortestPathCase5_TestC1Ev
FNDA:1,_ZN3s2142GraphAlgorithmsTest_ShortestPathCase5_TestC1Ev
FN:64,_ZN3s2142GraphAlgorithmsTest_ShortestPathCase5_Test8TestBodyEv
FNDA:1,_ZN3s2142GraphAlgorithmsTest_ShortestPathCase5_Test8TestBodyEv
FN:64,_ZN3s2142GraphAlgorithmsTest_ShortestPathCase5_TestD0Ev
FNDA:1,_ZN3s2142GraphAlgorithmsTest_ShortestPathCase5_TestD0Ev
FN:64,_ZN3s2142GraphAlgorithmsTest_ShortestPathCase5_TestD1Ev
FNDA:1,_ZN3s2142GraphAlgorithmsTest_ShortestPathCase5_TestD1Ev
FN:74,_ZN3s2142GraphAlgorithmsTest_ShortestPathCase6_TestD0Ev
FNDA:1,_ZN3s2142GraphAlgorithmsTest_ShortestPathCase6_TestD0Ev
FN:74,_ZN3s2142GraphAlgorithmsTest_ShortestPathCase6_Test8TestBodyEv
FNDA:1,_ZN3s2142GraphAlgorithmsTest_ShortestPathCase6_Test8TestBodyEv
FN:74,_ZN3s2142GraphAlgorithmsTest_ShortestPathCase6_TestD1Ev
FNDA:1,_ZN3s2142GraphAlgorithmsTest_ShortestPathCase6_TestD1Ev
FN:74,_ZN3s2142GraphAlgorithmsTest_ShortestPathCase6_TestC1Ev
FNDA:1,_ZN3s2142GraphAlgorithmsTest_ShortestPathCase6_TestC1Ev
FN:84,_ZN3s2142GraphAlgorithmsTest_ShortestPathCase7_TestD0Ev
FNDA:1,_ZN3s2142GraphAlgorithmsTest_ShortestPathCase7_TestD0Ev
FN:84,_ZN3s2142GraphAlgorithmsTest_ShortestPathCase7_TestD1Ev
FNDA:1,_ZN3s2142GraphAlgorithmsTest_ShortestPathCase7_TestD1Ev
FN:84,_ZN3s2142GraphAlgorithmsTest_ShortestPathCase7_TestC1Ev
FNDA:1,_ZN3s2142GraphAlgorithmsTest_ShortestPathCase7_TestC1Ev
FN:84,_ZN3s2142GraphAlgorithmsTest_ShortestPathCase7_Test8TestBodyEv
FNDA:1,_ZN3s2142GraphAlgorithmsTest_ShortestPathCase7_Test8TestBodyEv
FN:94,_ZN3s2142GraphAlgorithmsTest_ShortestPathCase8_TestD0Ev
FNDA:1,_ZN3s2142GraphAlgorithmsTest_ShortestPathCase8_TestD0Ev
FN:94,_ZN3s2142GraphAlgorithmsTest_ShortestPathCase8_Test8TestBodyEv
FNDA:1,_ZN3s2142GraphAlgorithmsTest_ShortestPathCase8_Test8TestBodyEv
FN:94,_ZN3s2142GraphAlgorithmsTest_ShortestPathCase8_TestC1Ev
FNDA:1,_ZN3s2142GraphAlgorithmsTest_ShortestPathCase8_TestC1Ev
FN:94,_ZN3s2142GraphAlgorithmsTest_ShortestPathCase8_TestD1Ev
FNDA:1,_ZN3s2142GraphAlgorithmsTest_ShortestPathCase8_TestD1Ev
FN:104,_ZN3s2142GraphAlgorithmsTest_ShortestPathCase9_TestC1Ev
FNDA:1,_ZN3s2142GraphAlgorithmsTest_ShortestPathCase9_TestC1Ev
FN:104,_ZN3s2142GraphAlgorithmsTest_ShortestPathCase9_TestD0Ev
FNDA:1,_ZN3s2142GraphAlgorithmsTest_ShortestPathCase9_TestD0Ev
FN:104,_ZN3s2142GraphAlgorithmsTest_ShortestPathCase9_TestD1Ev
FNDA:1,_ZN3s2142GraphAlgorithmsTest_ShortestPathCase9_TestD1Ev
FN:104,_ZN3s2142GraphAlgorithmsTest_ShortestPathCase9_Test8TestBodyEv
FNDA:1,_ZN3s2142GraphAlgorithmsTest_ShortestPathCase9_Test8TestBodyEv
FN:114,_ZN3s2143GraphAlgorithmsTest_ShortestPathCase10_TestD0Ev
FNDA:1,_ZN3s2143GraphAlgorithmsTest_ShortestPathCase10_TestD0Ev
FN:114,_ZN3s2143GraphAlgorithmsTest_ShortestPathCase10_TestC1Ev
FNDA:1,_ZN3s2143GraphAlgorithmsTest_ShortestPathCase10_TestC1Ev
FN:114,_ZN3s2143GraphAlgorithmsTest_ShortestPathCase10_TestD1Ev
FNDA:1,_ZN3s2143GraphAlgorithmsTest_ShortestPathCase10_TestD1Ev
FN:114,_ZN3s2143GraphAlgorithmsTest_ShortestPathCase10_Test8TestBodyEv
FNDA:1,_ZN3s2143GraphAlgorithmsTest_ShortestPathCase10_Test8TestBodyEv
FN:124,_ZN3s2141GraphAlgorithmsTest_InvalidVertices3_TestD0Ev
FNDA:1,_ZN3s2141GraphAlgorithmsTest_InvalidVertices3_TestD0Ev
FN:124,_ZN3s2141GraphAlgorithmsTest_InvalidVertices3_Test8TestBodyEv
FNDA:1,_ZN3s2141GraphAlgorithmsTest_InvalidVertices3_Test8TestBodyEv
FN:124,_ZN3s2141GraphAlgorithmsTest_InvalidVertices3_TestC1Ev
FNDA:1,_ZN3s2141GraphAlgorithmsTest_InvalidVertices3_TestC1Ev
FN:124,_ZN3s2141GraphAlgorithmsTest_InvalidVertices3_TestD1Ev
FNDA:1,_ZN3s2141GraphAlgorithmsTest_InvalidVertices3_TestD1Ev
FN:134,_ZN3s2137GraphAlgorithmsTest_VeryBigGraph_Test8TestBodyEv
FNDA:1,_ZN3s2137GraphAlgorithmsTest_VeryBigGraph_Test8TestBodyEv
FN:134,_ZN3s2137GraphAlgorithmsTest_VeryBigGraph_TestC1Ev
FNDA:1,_ZN3s2137GraphAlgorithmsTest_VeryBigGraph_TestC1Ev
FN:134,_ZN3s2137GraphAlgorithmsTest_VeryBigGraph_TestD1Ev
FNDA:1,_ZN3s2137GraphAlgorithmsTest_VeryBigGraph_TestD1Ev
FN:134,_ZN3s2137GraphAlgorithmsTest_VeryBigGraph_TestD0Ev
FNDA:1,_ZN3s2137GraphAlgorithmsTest_VeryBigGraph_TestD0Ev
FNF:56
FNH:56
DA:4,1
DA:4,1
DA:4,1
DA:4,1
DA:5,2
DA:6,1
DA:7,2
DA:8,1
DA:10,1
DA:11,1
DA:12,1
DA:14,1
DA:14,1
DA:14,1
DA:14,1
DA:15,2
DA:16,1
DA:17,2
DA:18,1
DA:20,1
DA:21,1
DA:22,1
DA:24,1
DA:24,1
DA:24,1
DA:24,1
DA:25,2
DA:26,1
DA:27,2
DA:28,1
DA:30,1
DA:31,1
DA:32,1
DA:34,1
DA:34,1
DA:34,1
DA:34,1
DA:35,2
DA:36,1
DA:37,2
DA:38,1
DA:40,1
DA:41,1
DA:42,1
DA:44,1
DA:44,1
DA:44,1
DA:44,1
DA:45,2
DA:46,1
DA:47,2
DA:48,1
DA:50,1
DA:52,1
DA:54,1
DA:54,1
DA:54,1
DA:54,1
DA:55,2
DA:56,1
DA:57,2
DA:58,1
DA:60,1
DA:62,1
DA:64,1
DA:64,1
DA:64,1
DA:64,1
DA:65,2
DA:66,1
DA:67,2
DA:68,1
DA:70,1
DA:71,1
DA:72,1
DA:74,1
DA:74,1
DA:74,1
DA:74,1
DA:75,2
DA:76,1
DA:77,2
DA:78,1
DA:80,1
DA:81,1
DA:82,1
DA:84,1
DA:84,1
DA:84,1
DA:84,1
DA:85,2
DA:86,1
DA:87,2
DA:88,1
DA:90,1
DA:91,1
DA:92,1
DA:94,1
DA:94,1
DA:94,1
DA:94,1
DA:95,2
DA:96,1
DA:97,2
DA:98,1
DA:100,1
DA:101,1
DA:102,1
DA:104,1
DA:104,1
DA:104,1
DA:104,1
DA:105,2
DA:106,1
DA:107,2
DA:108,1
DA:110,1
DA:111,1
DA:112,1
DA:114,1
DA:114,1
DA:114,1
DA:114,1
DA:115,2
DA:116,1
DA:117,2
DA:118,1
DA:120,1
DA:122,1
DA:124,1
DA:124,1
DA:124,1
DA:124,1
DA:125,2
DA:126,1
DA:127,2
DA:128,1
DA:130,1
DA:132,1
DA:134,1
DA:134,1
DA:134,1
DA:134,1
DA:135,2
DA:137,1
DA:138,2
DA:139,1
DA:141,1
DA:143,1
DA:145,1
DA:146,1
DA:147,1
DA:149,1
DA:150,1
DA:151,1
DA:153,1
DA:154,1
DA:155,1
DA:157,1
DA:158,1
DA:159,1
DA:160,1
LF:162
LH:162
end_of_record
